
Project1.elf:     file format elf32-avr

Sections:
Idx Name          Size      VMA       LMA       File off  Algn
  0 .data         000003cc  00800100  00001ca0  00001d34  2**0
                  CONTENTS, ALLOC, LOAD, DATA
  1 .text         00001ca0  00000000  00000000  00000094  2**1
                  CONTENTS, ALLOC, LOAD, READONLY, CODE
  2 .bss          00000025  008004cc  008004cc  00002100  2**0
                  ALLOC
  3 .comment      0000005c  00000000  00000000  00002100  2**0
                  CONTENTS, READONLY
  4 .note.gnu.avr.deviceinfo 00000040  00000000  00000000  0000215c  2**2
                  CONTENTS, READONLY
  5 .debug_aranges 00000168  00000000  00000000  0000219c  2**0
                  CONTENTS, READONLY, DEBUGGING
  6 .debug_info   00001dac  00000000  00000000  00002304  2**0
                  CONTENTS, READONLY, DEBUGGING
  7 .debug_abbrev 00000bf5  00000000  00000000  000040b0  2**0
                  CONTENTS, READONLY, DEBUGGING
  8 .debug_line   00001012  00000000  00000000  00004ca5  2**0
                  CONTENTS, READONLY, DEBUGGING
  9 .debug_frame  00000554  00000000  00000000  00005cb8  2**2
                  CONTENTS, READONLY, DEBUGGING
 10 .debug_str    00000744  00000000  00000000  0000620c  2**0
                  CONTENTS, READONLY, DEBUGGING
 11 .debug_loc    000015dc  00000000  00000000  00006950  2**0
                  CONTENTS, READONLY, DEBUGGING
 12 .debug_ranges 00000150  00000000  00000000  00007f2c  2**0
                  CONTENTS, READONLY, DEBUGGING

Disassembly of section .text:

00000000 <__vectors>:
       0:	0c 94 90 00 	jmp	0x120	; 0x120 <__ctors_end>
       4:	0c 94 ad 00 	jmp	0x15a	; 0x15a <__bad_interrupt>
       8:	0c 94 ad 00 	jmp	0x15a	; 0x15a <__bad_interrupt>
       c:	0c 94 ad 00 	jmp	0x15a	; 0x15a <__bad_interrupt>
      10:	0c 94 42 06 	jmp	0xc84	; 0xc84 <__vector_4>
      14:	0c 94 2e 06 	jmp	0xc5c	; 0xc5c <__vector_5>
      18:	0c 94 ad 00 	jmp	0x15a	; 0x15a <__bad_interrupt>
      1c:	0c 94 05 07 	jmp	0xe0a	; 0xe0a <__vector_7>
      20:	0c 94 ad 00 	jmp	0x15a	; 0x15a <__bad_interrupt>
      24:	0c 94 ad 00 	jmp	0x15a	; 0x15a <__bad_interrupt>
      28:	0c 94 ad 00 	jmp	0x15a	; 0x15a <__bad_interrupt>
      2c:	0c 94 ad 00 	jmp	0x15a	; 0x15a <__bad_interrupt>
      30:	0c 94 ad 00 	jmp	0x15a	; 0x15a <__bad_interrupt>
      34:	0c 94 ad 00 	jmp	0x15a	; 0x15a <__bad_interrupt>
      38:	0c 94 33 07 	jmp	0xe66	; 0xe66 <__vector_14>
      3c:	0c 94 ad 00 	jmp	0x15a	; 0x15a <__bad_interrupt>
      40:	0c 94 ad 00 	jmp	0x15a	; 0x15a <__bad_interrupt>
      44:	0c 94 ad 00 	jmp	0x15a	; 0x15a <__bad_interrupt>
      48:	0c 94 ad 00 	jmp	0x15a	; 0x15a <__bad_interrupt>
      4c:	0c 94 ad 00 	jmp	0x15a	; 0x15a <__bad_interrupt>
      50:	0c 94 ad 00 	jmp	0x15a	; 0x15a <__bad_interrupt>
      54:	0c 94 ad 00 	jmp	0x15a	; 0x15a <__bad_interrupt>
      58:	0c 94 ad 00 	jmp	0x15a	; 0x15a <__bad_interrupt>
      5c:	0c 94 ad 00 	jmp	0x15a	; 0x15a <__bad_interrupt>
      60:	0c 94 ad 00 	jmp	0x15a	; 0x15a <__bad_interrupt>
      64:	0c 94 ad 00 	jmp	0x15a	; 0x15a <__bad_interrupt>
      68:	23 05       	cpc	r18, r3
      6a:	25 05       	cpc	r18, r5
      6c:	25 05       	cpc	r18, r5
      6e:	25 05       	cpc	r18, r5
      70:	25 05       	cpc	r18, r5
      72:	25 05       	cpc	r18, r5
      74:	25 05       	cpc	r18, r5
      76:	25 05       	cpc	r18, r5
      78:	25 05       	cpc	r18, r5
      7a:	25 05       	cpc	r18, r5
      7c:	25 05       	cpc	r18, r5
      7e:	25 05       	cpc	r18, r5
      80:	25 05       	cpc	r18, r5
      82:	25 05       	cpc	r18, r5
      84:	25 05       	cpc	r18, r5
      86:	25 05       	cpc	r18, r5
      88:	25 05       	cpc	r18, r5
      8a:	25 05       	cpc	r18, r5
      8c:	25 05       	cpc	r18, r5
      8e:	25 05       	cpc	r18, r5
      90:	1b 05       	cpc	r17, r11
      92:	25 05       	cpc	r18, r5
      94:	25 05       	cpc	r18, r5
      96:	25 05       	cpc	r18, r5
      98:	25 05       	cpc	r18, r5
      9a:	25 05       	cpc	r18, r5
      9c:	25 05       	cpc	r18, r5
      9e:	25 05       	cpc	r18, r5
      a0:	25 05       	cpc	r18, r5
      a2:	25 05       	cpc	r18, r5
      a4:	25 05       	cpc	r18, r5
      a6:	25 05       	cpc	r18, r5
      a8:	25 05       	cpc	r18, r5
      aa:	25 05       	cpc	r18, r5
      ac:	25 05       	cpc	r18, r5
      ae:	25 05       	cpc	r18, r5
      b0:	25 05       	cpc	r18, r5
      b2:	25 05       	cpc	r18, r5
      b4:	1d 05       	cpc	r17, r13
      b6:	25 05       	cpc	r18, r5
      b8:	25 05       	cpc	r18, r5
      ba:	25 05       	cpc	r18, r5
      bc:	25 05       	cpc	r18, r5
      be:	25 05       	cpc	r18, r5
      c0:	1f 05       	cpc	r17, r15
      c2:	25 05       	cpc	r18, r5
      c4:	25 05       	cpc	r18, r5
      c6:	21 05       	cpc	r18, r1
      c8:	25 05       	cpc	r18, r5
      ca:	25 05       	cpc	r18, r5
      cc:	25 05       	cpc	r18, r5
      ce:	25 05       	cpc	r18, r5
      d0:	17 05       	cpc	r17, r7
      d2:	25 05       	cpc	r18, r5
      d4:	25 05       	cpc	r18, r5
      d6:	25 05       	cpc	r18, r5
      d8:	25 05       	cpc	r18, r5
      da:	25 05       	cpc	r18, r5
      dc:	25 05       	cpc	r18, r5
      de:	25 05       	cpc	r18, r5
      e0:	25 05       	cpc	r18, r5
      e2:	25 05       	cpc	r18, r5
      e4:	25 05       	cpc	r18, r5
      e6:	25 05       	cpc	r18, r5
      e8:	25 05       	cpc	r18, r5
      ea:	25 05       	cpc	r18, r5
      ec:	25 05       	cpc	r18, r5
      ee:	25 05       	cpc	r18, r5
      f0:	25 05       	cpc	r18, r5
      f2:	25 05       	cpc	r18, r5
      f4:	27 05       	cpc	r18, r7
      f6:	25 05       	cpc	r18, r5
      f8:	25 05       	cpc	r18, r5
      fa:	25 05       	cpc	r18, r5
      fc:	25 05       	cpc	r18, r5
      fe:	25 05       	cpc	r18, r5
     100:	19 05       	cpc	r17, r9
     102:	05 a8       	ldd	r0, Z+53	; 0x35
     104:	4c cd       	rjmp	.-1384   	; 0xfffffb9e <__eeprom_end+0xff7efb9e>
     106:	b2 d4       	rcall	.+2404   	; 0xa6c <TFT_Print+0xa0>
     108:	4e b9       	out	0x0e, r20	; 14
     10a:	38 36       	cpi	r19, 0x68	; 104
     10c:	a9 02       	muls	r26, r25
     10e:	0c 50       	subi	r16, 0x0C	; 12
     110:	b9 91       	ld	r27, Y+
     112:	86 88       	ldd	r8, Z+22	; 0x16
     114:	08 3c       	cpi	r16, 0xC8	; 200
     116:	a6 aa       	std	Z+54, r10	; 0x36
     118:	aa 2a       	or	r10, r26
     11a:	be 00       	.word	0x00be	; ????
     11c:	00 00       	nop
     11e:	80 3f       	cpi	r24, 0xF0	; 240

00000120 <__ctors_end>:
     120:	11 24       	eor	r1, r1
     122:	1f be       	out	0x3f, r1	; 63
     124:	cf ef       	ldi	r28, 0xFF	; 255
     126:	d8 e0       	ldi	r29, 0x08	; 8
     128:	de bf       	out	0x3e, r29	; 62
     12a:	cd bf       	out	0x3d, r28	; 61

0000012c <__do_copy_data>:
     12c:	14 e0       	ldi	r17, 0x04	; 4
     12e:	a0 e0       	ldi	r26, 0x00	; 0
     130:	b1 e0       	ldi	r27, 0x01	; 1
     132:	e0 ea       	ldi	r30, 0xA0	; 160
     134:	fc e1       	ldi	r31, 0x1C	; 28
     136:	02 c0       	rjmp	.+4      	; 0x13c <__do_copy_data+0x10>
     138:	05 90       	lpm	r0, Z+
     13a:	0d 92       	st	X+, r0
     13c:	ac 3c       	cpi	r26, 0xCC	; 204
     13e:	b1 07       	cpc	r27, r17
     140:	d9 f7       	brne	.-10     	; 0x138 <__do_copy_data+0xc>

00000142 <__do_clear_bss>:
     142:	24 e0       	ldi	r18, 0x04	; 4
     144:	ac ec       	ldi	r26, 0xCC	; 204
     146:	b4 e0       	ldi	r27, 0x04	; 4
     148:	01 c0       	rjmp	.+2      	; 0x14c <.do_clear_bss_start>

0000014a <.do_clear_bss_loop>:
     14a:	1d 92       	st	X+, r1

0000014c <.do_clear_bss_start>:
     14c:	a1 3f       	cpi	r26, 0xF1	; 241
     14e:	b2 07       	cpc	r27, r18
     150:	e1 f7       	brne	.-8      	; 0x14a <.do_clear_bss_loop>
     152:	0e 94 2b 06 	call	0xc56	; 0xc56 <main>
     156:	0c 94 4e 0e 	jmp	0x1c9c	; 0x1c9c <_exit>

0000015a <__bad_interrupt>:
     15a:	0c 94 00 00 	jmp	0	; 0x0 <__vectors>

0000015e <loadWorld>:
	int sum = 0;
	for(int i = 0; i < power; i++) {
		sum += n;
	}
	return sum;
}
     15e:	0f 93       	push	r16
     160:	cf 93       	push	r28
     162:	df 93       	push	r29
     164:	02 e0       	ldi	r16, 0x02	; 2
     166:	23 e8       	ldi	r18, 0x83	; 131
     168:	4f ea       	ldi	r20, 0xAF	; 175
     16a:	60 e0       	ldi	r22, 0x00	; 0
     16c:	80 e0       	ldi	r24, 0x00	; 0
     16e:	0e 94 55 04 	call	0x8aa	; 0x8aa <TFT_Window>
     172:	c0 e0       	ldi	r28, 0x00	; 0
     174:	d0 e0       	ldi	r29, 0x00	; 0
     176:	04 c0       	rjmp	.+8      	; 0x180 <loadWorld+0x22>
     178:	8f ef       	ldi	r24, 0xFF	; 255
     17a:	0e 94 92 03 	call	0x724	; 0x724 <SPISend8Bit>
     17e:	21 96       	adiw	r28, 0x01	; 1
     180:	c0 3c       	cpi	r28, 0xC0	; 192
     182:	8a e5       	ldi	r24, 0x5A	; 90
     184:	d8 07       	cpc	r29, r24
     186:	c4 f3       	brlt	.-16     	; 0x178 <loadWorld+0x1a>
     188:	02 e0       	ldi	r16, 0x02	; 2
     18a:	2d e6       	ldi	r18, 0x6D	; 109
     18c:	4f ea       	ldi	r20, 0xAF	; 175
     18e:	64 e6       	ldi	r22, 0x64	; 100
     190:	80 e0       	ldi	r24, 0x00	; 0
     192:	0e 94 55 04 	call	0x8aa	; 0x8aa <TFT_Window>
     196:	c0 e0       	ldi	r28, 0x00	; 0
     198:	d0 e0       	ldi	r29, 0x00	; 0
     19a:	04 c0       	rjmp	.+8      	; 0x1a4 <loadWorld+0x46>
     19c:	80 e0       	ldi	r24, 0x00	; 0
     19e:	0e 94 92 03 	call	0x724	; 0x724 <SPISend8Bit>
     1a2:	21 96       	adiw	r28, 0x01	; 1
     1a4:	c0 3e       	cpi	r28, 0xE0	; 224
     1a6:	86 e0       	ldi	r24, 0x06	; 6
     1a8:	d8 07       	cpc	r29, r24
     1aa:	c4 f3       	brlt	.-16     	; 0x19c <loadWorld+0x3e>
     1ac:	df 91       	pop	r29
     1ae:	cf 91       	pop	r28
     1b0:	0f 91       	pop	r16
     1b2:	08 95       	ret

000001b4 <spawnPlayer>:
     1b4:	0f 93       	push	r16
     1b6:	cf 93       	push	r28
     1b8:	df 93       	push	r29
     1ba:	e0 ed       	ldi	r30, 0xD0	; 208
     1bc:	f4 e0       	ldi	r31, 0x04	; 4
     1be:	84 e1       	ldi	r24, 0x14	; 20
     1c0:	90 e0       	ldi	r25, 0x00	; 0
     1c2:	91 83       	std	Z+1, r25	; 0x01
     1c4:	80 83       	st	Z, r24
     1c6:	8a e5       	ldi	r24, 0x5A	; 90
     1c8:	90 e0       	ldi	r25, 0x00	; 0
     1ca:	93 83       	std	Z+3, r25	; 0x03
     1cc:	82 83       	std	Z+2, r24	; 0x02
     1ce:	02 e0       	ldi	r16, 0x02	; 2
     1d0:	23 e6       	ldi	r18, 0x63	; 99
     1d2:	4d e1       	ldi	r20, 0x1D	; 29
     1d4:	6a e5       	ldi	r22, 0x5A	; 90
     1d6:	84 e1       	ldi	r24, 0x14	; 20
     1d8:	0e 94 55 04 	call	0x8aa	; 0x8aa <TFT_Window>
     1dc:	c0 e0       	ldi	r28, 0x00	; 0
     1de:	d0 e0       	ldi	r29, 0x00	; 0
     1e0:	04 c0       	rjmp	.+8      	; 0x1ea <spawnPlayer+0x36>
     1e2:	80 e0       	ldi	r24, 0x00	; 0
     1e4:	0e 94 92 03 	call	0x724	; 0x724 <SPISend8Bit>
     1e8:	21 96       	adiw	r28, 0x01	; 1
     1ea:	c4 36       	cpi	r28, 0x64	; 100
     1ec:	d1 05       	cpc	r29, r1
     1ee:	cc f3       	brlt	.-14     	; 0x1e2 <spawnPlayer+0x2e>
     1f0:	df 91       	pop	r29
     1f2:	cf 91       	pop	r28
     1f4:	0f 91       	pop	r16
     1f6:	08 95       	ret

000001f8 <spawnObstacles>:
     1f8:	80 e0       	ldi	r24, 0x00	; 0
     1fa:	90 e0       	ldi	r25, 0x00	; 0
     1fc:	16 c0       	rjmp	.+44     	; 0x22a <spawnObstacles+0x32>
     1fe:	42 e3       	ldi	r20, 0x32	; 50
     200:	48 9f       	mul	r20, r24
     202:	90 01       	movw	r18, r0
     204:	49 9f       	mul	r20, r25
     206:	30 0d       	add	r19, r0
     208:	11 24       	eor	r1, r1
     20a:	2c 55       	subi	r18, 0x5C	; 92
     20c:	3f 4f       	sbci	r19, 0xFF	; 255
     20e:	fc 01       	movw	r30, r24
     210:	ee 0f       	add	r30, r30
     212:	ff 1f       	adc	r31, r31
     214:	ee 0f       	add	r30, r30
     216:	ff 1f       	adc	r31, r31
     218:	ec 52       	subi	r30, 0x2C	; 44
     21a:	fb 4f       	sbci	r31, 0xFB	; 251
     21c:	31 83       	std	Z+1, r19	; 0x01
     21e:	20 83       	st	Z, r18
     220:	2a e5       	ldi	r18, 0x5A	; 90
     222:	30 e0       	ldi	r19, 0x00	; 0
     224:	33 83       	std	Z+3, r19	; 0x03
     226:	22 83       	std	Z+2, r18	; 0x02
     228:	01 96       	adiw	r24, 0x01	; 1
     22a:	83 30       	cpi	r24, 0x03	; 3
     22c:	91 05       	cpc	r25, r1
     22e:	3c f3       	brlt	.-50     	; 0x1fe <spawnObstacles+0x6>
     230:	08 95       	ret

00000232 <InitGame>:
     232:	10 92 f0 04 	sts	0x04F0, r1	; 0x8004f0 <jumping+0x1>
     236:	10 92 ef 04 	sts	0x04EF, r1	; 0x8004ef <jumping>
     23a:	10 92 ee 04 	sts	0x04EE, r1	; 0x8004ee <speed+0x1>
     23e:	10 92 ed 04 	sts	0x04ED, r1	; 0x8004ed <speed>
     242:	0e 94 af 00 	call	0x15e	; 0x15e <loadWorld>
     246:	0e 94 da 00 	call	0x1b4	; 0x1b4 <spawnPlayer>
     24a:	0e 94 fc 00 	call	0x1f8	; 0x1f8 <spawnObstacles>
     24e:	08 95       	ret

00000250 <resetObstacle>:
     250:	cf 93       	push	r28
     252:	df 93       	push	r29
     254:	ec 01       	movw	r28, r24
     256:	0e 94 00 0b 	call	0x1600	; 0x1600 <rand>
     25a:	6f e0       	ldi	r22, 0x0F	; 15
     25c:	70 e0       	ldi	r23, 0x00	; 0
     25e:	0e 94 77 0a 	call	0x14ee	; 0x14ee <__divmodhi4>
     262:	8c 55       	subi	r24, 0x5C	; 92
     264:	9f 4f       	sbci	r25, 0xFF	; 255
     266:	99 83       	std	Y+1, r25	; 0x01
     268:	88 83       	st	Y, r24
     26a:	8a e5       	ldi	r24, 0x5A	; 90
     26c:	90 e0       	ldi	r25, 0x00	; 0
     26e:	9b 83       	std	Y+3, r25	; 0x03
     270:	8a 83       	std	Y+2, r24	; 0x02
     272:	df 91       	pop	r29
     274:	cf 91       	pop	r28
     276:	08 95       	ret

00000278 <checkCollision>:
     278:	20 91 d0 04 	lds	r18, 0x04D0	; 0x8004d0 <player>
     27c:	30 91 d1 04 	lds	r19, 0x04D1	; 0x8004d1 <player+0x1>
     280:	a9 01       	movw	r20, r18
     282:	46 5f       	subi	r20, 0xF6	; 246
     284:	5f 4f       	sbci	r21, 0xFF	; 255
     286:	64 17       	cp	r22, r20
     288:	75 07       	cpc	r23, r21
     28a:	94 f4       	brge	.+36     	; 0x2b0 <checkCollision+0x38>
     28c:	ab 01       	movw	r20, r22
     28e:	46 5f       	subi	r20, 0xF6	; 246
     290:	5f 4f       	sbci	r21, 0xFF	; 255
     292:	24 17       	cp	r18, r20
     294:	35 07       	cpc	r19, r21
     296:	7c f4       	brge	.+30     	; 0x2b6 <checkCollision+0x3e>
     298:	20 91 d2 04 	lds	r18, 0x04D2	; 0x8004d2 <player+0x2>
     29c:	30 91 d3 04 	lds	r19, 0x04D3	; 0x8004d3 <player+0x3>
     2a0:	26 5f       	subi	r18, 0xF6	; 246
     2a2:	3f 4f       	sbci	r19, 0xFF	; 255
     2a4:	82 17       	cp	r24, r18
     2a6:	93 07       	cpc	r25, r19
     2a8:	4c f0       	brlt	.+18     	; 0x2bc <checkCollision+0x44>
     2aa:	80 e0       	ldi	r24, 0x00	; 0
     2ac:	90 e0       	ldi	r25, 0x00	; 0
     2ae:	08 95       	ret
     2b0:	80 e0       	ldi	r24, 0x00	; 0
     2b2:	90 e0       	ldi	r25, 0x00	; 0
     2b4:	08 95       	ret
     2b6:	80 e0       	ldi	r24, 0x00	; 0
     2b8:	90 e0       	ldi	r25, 0x00	; 0
     2ba:	08 95       	ret
     2bc:	81 e0       	ldi	r24, 0x01	; 1
     2be:	90 e0       	ldi	r25, 0x00	; 0
     2c0:	08 95       	ret

000002c2 <counterDisplay>:
     2c2:	af 92       	push	r10
     2c4:	bf 92       	push	r11
     2c6:	cf 92       	push	r12
     2c8:	ef 92       	push	r14
     2ca:	0f 93       	push	r16
     2cc:	cf 93       	push	r28
     2ce:	df 93       	push	r29
     2d0:	cd b7       	in	r28, 0x3d	; 61
     2d2:	de b7       	in	r29, 0x3e	; 62
     2d4:	2c 97       	sbiw	r28, 0x0c	; 12
     2d6:	0f b6       	in	r0, 0x3f	; 63
     2d8:	f8 94       	cli
     2da:	de bf       	out	0x3e, r29	; 62
     2dc:	0f be       	out	0x3f, r0	; 63
     2de:	cd bf       	out	0x3d, r28	; 61
     2e0:	20 91 cc 04 	lds	r18, 0x04CC	; 0x8004cc <__data_end>
     2e4:	30 91 cd 04 	lds	r19, 0x04CD	; 0x8004cd <__data_end+0x1>
     2e8:	ab ea       	ldi	r26, 0xAB	; 171
     2ea:	ba ea       	ldi	r27, 0xAA	; 170
     2ec:	0e 94 91 0a 	call	0x1522	; 0x1522 <__umulhisi3>
     2f0:	96 95       	lsr	r25
     2f2:	87 95       	ror	r24
     2f4:	90 93 ee 04 	sts	0x04EE, r25	; 0x8004ee <speed+0x1>
     2f8:	80 93 ed 04 	sts	0x04ED, r24	; 0x8004ed <speed>
     2fc:	80 91 cc 04 	lds	r24, 0x04CC	; 0x8004cc <__data_end>
     300:	90 91 cd 04 	lds	r25, 0x04CD	; 0x8004cd <__data_end+0x1>
     304:	9f 93       	push	r25
     306:	8f 93       	push	r24
     308:	8d e6       	ldi	r24, 0x6D	; 109
     30a:	91 e0       	ldi	r25, 0x01	; 1
     30c:	9f 93       	push	r25
     30e:	8f 93       	push	r24
     310:	ce 01       	movw	r24, r28
     312:	01 96       	adiw	r24, 0x01	; 1
     314:	5c 01       	movw	r10, r24
     316:	9f 93       	push	r25
     318:	8f 93       	push	r24
     31a:	0e 94 10 0b 	call	0x1620	; 0x1620 <sprintf>
     31e:	68 94       	set
     320:	cc 24       	eor	r12, r12
     322:	c1 f8       	bld	r12, 1
     324:	ee 24       	eor	r14, r14
     326:	ea 94       	dec	r14
     328:	00 e0       	ldi	r16, 0x00	; 0
     32a:	22 e0       	ldi	r18, 0x02	; 2
     32c:	4c e0       	ldi	r20, 0x0C	; 12
     32e:	65 e5       	ldi	r22, 0x55	; 85
     330:	c5 01       	movw	r24, r10
     332:	0e 94 e6 04 	call	0x9cc	; 0x9cc <TFT_Print>
     336:	0f 90       	pop	r0
     338:	0f 90       	pop	r0
     33a:	0f 90       	pop	r0
     33c:	0f 90       	pop	r0
     33e:	0f 90       	pop	r0
     340:	0f 90       	pop	r0
     342:	2c 96       	adiw	r28, 0x0c	; 12
     344:	0f b6       	in	r0, 0x3f	; 63
     346:	f8 94       	cli
     348:	de bf       	out	0x3e, r29	; 62
     34a:	0f be       	out	0x3f, r0	; 63
     34c:	cd bf       	out	0x3d, r28	; 61
     34e:	df 91       	pop	r29
     350:	cf 91       	pop	r28
     352:	0f 91       	pop	r16
     354:	ef 90       	pop	r14
     356:	cf 90       	pop	r12
     358:	bf 90       	pop	r11
     35a:	af 90       	pop	r10
     35c:	08 95       	ret

0000035e <startGame>:
     35e:	10 92 07 01 	sts	0x0107, r1	; 0x800107 <gameOver+0x1>
     362:	10 92 06 01 	sts	0x0106, r1	; 0x800106 <gameOver>
     366:	0e 94 19 01 	call	0x232	; 0x232 <InitGame>
     36a:	0e 94 61 01 	call	0x2c2	; 0x2c2 <counterDisplay>
     36e:	08 95       	ret

00000370 <setGameOver>:
     370:	af 92       	push	r10
     372:	bf 92       	push	r11
     374:	cf 92       	push	r12
     376:	ef 92       	push	r14
     378:	0f 93       	push	r16
     37a:	1f 93       	push	r17
     37c:	cf 93       	push	r28
     37e:	df 93       	push	r29
     380:	cd b7       	in	r28, 0x3d	; 61
     382:	de b7       	in	r29, 0x3e	; 62
     384:	2a 97       	sbiw	r28, 0x0a	; 10
     386:	0f b6       	in	r0, 0x3f	; 63
     388:	f8 94       	cli
     38a:	de bf       	out	0x3e, r29	; 62
     38c:	0f be       	out	0x3f, r0	; 63
     38e:	cd bf       	out	0x3d, r28	; 61
     390:	02 e0       	ldi	r16, 0x02	; 2
     392:	23 e8       	ldi	r18, 0x83	; 131
     394:	4f ea       	ldi	r20, 0xAF	; 175
     396:	60 e0       	ldi	r22, 0x00	; 0
     398:	80 e0       	ldi	r24, 0x00	; 0
     39a:	0e 94 55 04 	call	0x8aa	; 0x8aa <TFT_Window>
     39e:	00 e0       	ldi	r16, 0x00	; 0
     3a0:	10 e0       	ldi	r17, 0x00	; 0
     3a2:	05 c0       	rjmp	.+10     	; 0x3ae <setGameOver+0x3e>
     3a4:	8f ef       	ldi	r24, 0xFF	; 255
     3a6:	0e 94 92 03 	call	0x724	; 0x724 <SPISend8Bit>
     3aa:	0f 5f       	subi	r16, 0xFF	; 255
     3ac:	1f 4f       	sbci	r17, 0xFF	; 255
     3ae:	00 3c       	cpi	r16, 0xC0	; 192
     3b0:	2a e5       	ldi	r18, 0x5A	; 90
     3b2:	12 07       	cpc	r17, r18
     3b4:	bc f3       	brlt	.-18     	; 0x3a4 <setGameOver+0x34>
     3b6:	8a e0       	ldi	r24, 0x0A	; 10
     3b8:	ee e7       	ldi	r30, 0x7E	; 126
     3ba:	f1 e0       	ldi	r31, 0x01	; 1
     3bc:	9e 01       	movw	r18, r28
     3be:	2f 5f       	subi	r18, 0xFF	; 255
     3c0:	3f 4f       	sbci	r19, 0xFF	; 255
     3c2:	59 01       	movw	r10, r18
     3c4:	d9 01       	movw	r26, r18
     3c6:	01 90       	ld	r0, Z+
     3c8:	0d 92       	st	X+, r0
     3ca:	8a 95       	dec	r24
     3cc:	e1 f7       	brne	.-8      	; 0x3c6 <setGameOver+0x56>
     3ce:	68 94       	set
     3d0:	cc 24       	eor	r12, r12
     3d2:	c1 f8       	bld	r12, 1
     3d4:	ee 24       	eor	r14, r14
     3d6:	ea 94       	dec	r14
     3d8:	00 e0       	ldi	r16, 0x00	; 0
     3da:	22 e0       	ldi	r18, 0x02	; 2
     3dc:	4c e0       	ldi	r20, 0x0C	; 12
     3de:	63 e2       	ldi	r22, 0x23	; 35
     3e0:	c5 01       	movw	r24, r10
     3e2:	0e 94 e6 04 	call	0x9cc	; 0x9cc <TFT_Print>
     3e6:	80 91 cc 04 	lds	r24, 0x04CC	; 0x8004cc <__data_end>
     3ea:	90 91 cd 04 	lds	r25, 0x04CD	; 0x8004cd <__data_end+0x1>
     3ee:	9f 93       	push	r25
     3f0:	8f 93       	push	r24
     3f2:	81 e6       	ldi	r24, 0x61	; 97
     3f4:	91 e0       	ldi	r25, 0x01	; 1
     3f6:	9f 93       	push	r25
     3f8:	8f 93       	push	r24
     3fa:	bf 92       	push	r11
     3fc:	af 92       	push	r10
     3fe:	0e 94 10 0b 	call	0x1620	; 0x1620 <sprintf>
     402:	21 e0       	ldi	r18, 0x01	; 1
     404:	4a e2       	ldi	r20, 0x2A	; 42
     406:	6c e2       	ldi	r22, 0x2C	; 44
     408:	c5 01       	movw	r24, r10
     40a:	0e 94 e6 04 	call	0x9cc	; 0x9cc <TFT_Print>
     40e:	20 91 cc 04 	lds	r18, 0x04CC	; 0x8004cc <__data_end>
     412:	30 91 cd 04 	lds	r19, 0x04CD	; 0x8004cd <__data_end+0x1>
     416:	80 91 ce 04 	lds	r24, 0x04CE	; 0x8004ce <highscore>
     41a:	90 91 cf 04 	lds	r25, 0x04CF	; 0x8004cf <highscore+0x1>
     41e:	0f 90       	pop	r0
     420:	0f 90       	pop	r0
     422:	0f 90       	pop	r0
     424:	0f 90       	pop	r0
     426:	0f 90       	pop	r0
     428:	0f 90       	pop	r0
     42a:	82 17       	cp	r24, r18
     42c:	93 07       	cpc	r25, r19
     42e:	40 f4       	brcc	.+16     	; 0x440 <__EEPROM_REGION_LENGTH__+0x40>
     430:	80 91 cc 04 	lds	r24, 0x04CC	; 0x8004cc <__data_end>
     434:	90 91 cd 04 	lds	r25, 0x04CD	; 0x8004cd <__data_end+0x1>
     438:	90 93 cf 04 	sts	0x04CF, r25	; 0x8004cf <highscore+0x1>
     43c:	80 93 ce 04 	sts	0x04CE, r24	; 0x8004ce <highscore>
     440:	80 91 ce 04 	lds	r24, 0x04CE	; 0x8004ce <highscore>
     444:	90 91 cf 04 	lds	r25, 0x04CF	; 0x8004cf <highscore+0x1>
     448:	9f 93       	push	r25
     44a:	8f 93       	push	r24
     44c:	80 e7       	ldi	r24, 0x70	; 112
     44e:	91 e0       	ldi	r25, 0x01	; 1
     450:	9f 93       	push	r25
     452:	8f 93       	push	r24
     454:	ce 01       	movw	r24, r28
     456:	01 96       	adiw	r24, 0x01	; 1
     458:	5c 01       	movw	r10, r24
     45a:	9f 93       	push	r25
     45c:	8f 93       	push	r24
     45e:	0e 94 10 0b 	call	0x1620	; 0x1620 <sprintf>
     462:	68 94       	set
     464:	cc 24       	eor	r12, r12
     466:	c1 f8       	bld	r12, 1
     468:	ee 24       	eor	r14, r14
     46a:	ea 94       	dec	r14
     46c:	00 e0       	ldi	r16, 0x00	; 0
     46e:	21 e0       	ldi	r18, 0x01	; 1
     470:	46 e4       	ldi	r20, 0x46	; 70
     472:	6f e2       	ldi	r22, 0x2F	; 47
     474:	c5 01       	movw	r24, r10
     476:	0e 94 e6 04 	call	0x9cc	; 0x9cc <TFT_Print>
     47a:	81 e0       	ldi	r24, 0x01	; 1
     47c:	90 e0       	ldi	r25, 0x00	; 0
     47e:	90 93 07 01 	sts	0x0107, r25	; 0x800107 <gameOver+0x1>
     482:	80 93 06 01 	sts	0x0106, r24	; 0x800106 <gameOver>
     486:	10 92 cd 04 	sts	0x04CD, r1	; 0x8004cd <__data_end+0x1>
     48a:	10 92 cc 04 	sts	0x04CC, r1	; 0x8004cc <__data_end>
     48e:	0f 90       	pop	r0
     490:	0f 90       	pop	r0
     492:	0f 90       	pop	r0
     494:	0f 90       	pop	r0
     496:	0f 90       	pop	r0
     498:	0f 90       	pop	r0
     49a:	2a 96       	adiw	r28, 0x0a	; 10
     49c:	0f b6       	in	r0, 0x3f	; 63
     49e:	f8 94       	cli
     4a0:	de bf       	out	0x3e, r29	; 62
     4a2:	0f be       	out	0x3f, r0	; 63
     4a4:	cd bf       	out	0x3d, r28	; 61
     4a6:	df 91       	pop	r29
     4a8:	cf 91       	pop	r28
     4aa:	1f 91       	pop	r17
     4ac:	0f 91       	pop	r16
     4ae:	ef 90       	pop	r14
     4b0:	cf 90       	pop	r12
     4b2:	bf 90       	pop	r11
     4b4:	af 90       	pop	r10
     4b6:	08 95       	ret

000004b8 <moveObstacles>:
     4b8:	ef 92       	push	r14
     4ba:	ff 92       	push	r15
     4bc:	0f 93       	push	r16
     4be:	cf 93       	push	r28
     4c0:	df 93       	push	r29
     4c2:	e1 2c       	mov	r14, r1
     4c4:	f1 2c       	mov	r15, r1
     4c6:	86 c0       	rjmp	.+268    	; 0x5d4 <moveObstacles+0x11c>
     4c8:	f7 01       	movw	r30, r14
     4ca:	ee 0f       	add	r30, r30
     4cc:	ff 1f       	adc	r31, r31
     4ce:	ee 0f       	add	r30, r30
     4d0:	ff 1f       	adc	r31, r31
     4d2:	ec 52       	subi	r30, 0x2C	; 44
     4d4:	fb 4f       	sbci	r31, 0xFB	; 251
     4d6:	80 81       	ld	r24, Z
     4d8:	91 81       	ldd	r25, Z+1	; 0x01
     4da:	80 3b       	cpi	r24, 0xB0	; 176
     4dc:	91 05       	cpc	r25, r1
     4de:	5c f0       	brlt	.+22     	; 0x4f6 <moveObstacles+0x3e>
     4e0:	f7 01       	movw	r30, r14
     4e2:	ee 0f       	add	r30, r30
     4e4:	ff 1f       	adc	r31, r31
     4e6:	ee 0f       	add	r30, r30
     4e8:	ff 1f       	adc	r31, r31
     4ea:	ec 52       	subi	r30, 0x2C	; 44
     4ec:	fb 4f       	sbci	r31, 0xFB	; 251
     4ee:	01 97       	sbiw	r24, 0x01	; 1
     4f0:	91 83       	std	Z+1, r25	; 0x01
     4f2:	80 83       	st	Z, r24
     4f4:	6c c0       	rjmp	.+216    	; 0x5ce <moveObstacles+0x116>
     4f6:	f7 01       	movw	r30, r14
     4f8:	ee 0f       	add	r30, r30
     4fa:	ff 1f       	adc	r31, r31
     4fc:	ee 0f       	add	r30, r30
     4fe:	ff 1f       	adc	r31, r31
     500:	ec 52       	subi	r30, 0x2C	; 44
     502:	fb 4f       	sbci	r31, 0xFB	; 251
     504:	62 81       	ldd	r22, Z+2	; 0x02
     506:	29 e0       	ldi	r18, 0x09	; 9
     508:	26 0f       	add	r18, r22
     50a:	49 e0       	ldi	r20, 0x09	; 9
     50c:	48 0f       	add	r20, r24
     50e:	02 e0       	ldi	r16, 0x02	; 2
     510:	0e 94 55 04 	call	0x8aa	; 0x8aa <TFT_Window>
     514:	c0 e0       	ldi	r28, 0x00	; 0
     516:	d0 e0       	ldi	r29, 0x00	; 0
     518:	04 c0       	rjmp	.+8      	; 0x522 <moveObstacles+0x6a>
     51a:	8f ef       	ldi	r24, 0xFF	; 255
     51c:	0e 94 92 03 	call	0x724	; 0x724 <SPISend8Bit>
     520:	21 96       	adiw	r28, 0x01	; 1
     522:	c4 36       	cpi	r28, 0x64	; 100
     524:	d1 05       	cpc	r29, r1
     526:	cc f3       	brlt	.-14     	; 0x51a <moveObstacles+0x62>
     528:	f7 01       	movw	r30, r14
     52a:	ee 0f       	add	r30, r30
     52c:	ff 1f       	adc	r31, r31
     52e:	ee 0f       	add	r30, r30
     530:	ff 1f       	adc	r31, r31
     532:	ec 52       	subi	r30, 0x2C	; 44
     534:	fb 4f       	sbci	r31, 0xFB	; 251
     536:	80 81       	ld	r24, Z
     538:	91 81       	ldd	r25, Z+1	; 0x01
     53a:	89 2b       	or	r24, r25
     53c:	a1 f4       	brne	.+40     	; 0x566 <moveObstacles+0xae>
     53e:	80 91 cc 04 	lds	r24, 0x04CC	; 0x8004cc <__data_end>
     542:	90 91 cd 04 	lds	r25, 0x04CD	; 0x8004cd <__data_end+0x1>
     546:	01 96       	adiw	r24, 0x01	; 1
     548:	90 93 cd 04 	sts	0x04CD, r25	; 0x8004cd <__data_end+0x1>
     54c:	80 93 cc 04 	sts	0x04CC, r24	; 0x8004cc <__data_end>
     550:	0e 94 61 01 	call	0x2c2	; 0x2c2 <counterDisplay>
     554:	c7 01       	movw	r24, r14
     556:	88 0f       	add	r24, r24
     558:	99 1f       	adc	r25, r25
     55a:	88 0f       	add	r24, r24
     55c:	99 1f       	adc	r25, r25
     55e:	8c 52       	subi	r24, 0x2C	; 44
     560:	9b 4f       	sbci	r25, 0xFB	; 251
     562:	0e 94 28 01 	call	0x250	; 0x250 <resetObstacle>
     566:	f7 01       	movw	r30, r14
     568:	ee 0f       	add	r30, r30
     56a:	ff 1f       	adc	r31, r31
     56c:	ee 0f       	add	r30, r30
     56e:	ff 1f       	adc	r31, r31
     570:	ec 52       	subi	r30, 0x2C	; 44
     572:	fb 4f       	sbci	r31, 0xFB	; 251
     574:	c0 81       	ld	r28, Z
     576:	d1 81       	ldd	r29, Z+1	; 0x01
     578:	21 97       	sbiw	r28, 0x01	; 1
     57a:	d1 83       	std	Z+1, r29	; 0x01
     57c:	c0 83       	st	Z, r28
     57e:	60 81       	ld	r22, Z
     580:	71 81       	ldd	r23, Z+1	; 0x01
     582:	82 81       	ldd	r24, Z+2	; 0x02
     584:	93 81       	ldd	r25, Z+3	; 0x03
     586:	0e 94 3c 01 	call	0x278	; 0x278 <checkCollision>
     58a:	89 2b       	or	r24, r25
     58c:	31 f0       	breq	.+12     	; 0x59a <moveObstacles+0xe2>
     58e:	88 b1       	in	r24, 0x08	; 8
     590:	82 60       	ori	r24, 0x02	; 2
     592:	88 b9       	out	0x08, r24	; 8
     594:	0e 94 b8 01 	call	0x370	; 0x370 <setGameOver>
     598:	22 c0       	rjmp	.+68     	; 0x5de <moveObstacles+0x126>
     59a:	f7 01       	movw	r30, r14
     59c:	ee 0f       	add	r30, r30
     59e:	ff 1f       	adc	r31, r31
     5a0:	ee 0f       	add	r30, r30
     5a2:	ff 1f       	adc	r31, r31
     5a4:	ec 52       	subi	r30, 0x2C	; 44
     5a6:	fb 4f       	sbci	r31, 0xFB	; 251
     5a8:	62 81       	ldd	r22, Z+2	; 0x02
     5aa:	29 e0       	ldi	r18, 0x09	; 9
     5ac:	26 0f       	add	r18, r22
     5ae:	4c 2f       	mov	r20, r28
     5b0:	47 5f       	subi	r20, 0xF7	; 247
     5b2:	02 e0       	ldi	r16, 0x02	; 2
     5b4:	8c 2f       	mov	r24, r28
     5b6:	0e 94 55 04 	call	0x8aa	; 0x8aa <TFT_Window>
     5ba:	c0 e0       	ldi	r28, 0x00	; 0
     5bc:	d0 e0       	ldi	r29, 0x00	; 0
     5be:	04 c0       	rjmp	.+8      	; 0x5c8 <moveObstacles+0x110>
     5c0:	80 ee       	ldi	r24, 0xE0	; 224
     5c2:	0e 94 92 03 	call	0x724	; 0x724 <SPISend8Bit>
     5c6:	21 96       	adiw	r28, 0x01	; 1
     5c8:	c4 36       	cpi	r28, 0x64	; 100
     5ca:	d1 05       	cpc	r29, r1
     5cc:	cc f3       	brlt	.-14     	; 0x5c0 <moveObstacles+0x108>
     5ce:	8f ef       	ldi	r24, 0xFF	; 255
     5d0:	e8 1a       	sub	r14, r24
     5d2:	f8 0a       	sbc	r15, r24
     5d4:	83 e0       	ldi	r24, 0x03	; 3
     5d6:	e8 16       	cp	r14, r24
     5d8:	f1 04       	cpc	r15, r1
     5da:	0c f4       	brge	.+2      	; 0x5de <moveObstacles+0x126>
     5dc:	75 cf       	rjmp	.-278    	; 0x4c8 <moveObstacles+0x10>
     5de:	df 91       	pop	r29
     5e0:	cf 91       	pop	r28
     5e2:	0f 91       	pop	r16
     5e4:	ff 90       	pop	r15
     5e6:	ef 90       	pop	r14
     5e8:	08 95       	ret

000005ea <sinJump>:

int sinJump(int counter) {
	double n = (double)counter / (10.0 / (PI/2));
     5ea:	bc 01       	movw	r22, r24
     5ec:	99 0f       	add	r25, r25
     5ee:	88 0b       	sbc	r24, r24
     5f0:	99 0b       	sbc	r25, r25
     5f2:	0e 94 ee 08 	call	0x11dc	; 0x11dc <__floatsisf>
     5f6:	28 e5       	ldi	r18, 0x58	; 88
     5f8:	32 ed       	ldi	r19, 0xD2	; 210
     5fa:	4b ec       	ldi	r20, 0xCB	; 203
     5fc:	50 e4       	ldi	r21, 0x40	; 64
     5fe:	0e 94 44 08 	call	0x1088	; 0x1088 <__divsf3>
	return 20.0 * sin(n);
     602:	0e 94 e7 09 	call	0x13ce	; 0x13ce <sin>
     606:	20 e0       	ldi	r18, 0x00	; 0
     608:	30 e0       	ldi	r19, 0x00	; 0
     60a:	40 ea       	ldi	r20, 0xA0	; 160
     60c:	51 e4       	ldi	r21, 0x41	; 65
     60e:	0e 94 7a 09 	call	0x12f4	; 0x12f4 <__mulsf3>
     612:	0e 94 b6 08 	call	0x116c	; 0x116c <__fixsfsi>
     616:	cb 01       	movw	r24, r22
     618:	08 95       	ret

0000061a <jumpHeight2>:

int jumpHeight2(int counter) {
	static volatile int acc = 1;
	int height;
	
	if (counter<10) {
     61a:	8a 30       	cpi	r24, 0x0A	; 10
     61c:	91 05       	cpc	r25, r1
     61e:	bc f4       	brge	.+46     	; 0x64e <jumpHeight2+0x34>
		height = 90 - sinJump(acc);
     620:	80 91 04 01 	lds	r24, 0x0104	; 0x800104 <acc.1998>
     624:	90 91 05 01 	lds	r25, 0x0105	; 0x800105 <acc.1998+0x1>
     628:	0e 94 f5 02 	call	0x5ea	; 0x5ea <sinJump>
     62c:	2a e5       	ldi	r18, 0x5A	; 90
     62e:	30 e0       	ldi	r19, 0x00	; 0
     630:	a9 01       	movw	r20, r18
     632:	48 1b       	sub	r20, r24
     634:	59 0b       	sbc	r21, r25
     636:	ca 01       	movw	r24, r20
		acc++;
     638:	20 91 04 01 	lds	r18, 0x0104	; 0x800104 <acc.1998>
     63c:	30 91 05 01 	lds	r19, 0x0105	; 0x800105 <acc.1998+0x1>
     640:	2f 5f       	subi	r18, 0xFF	; 255
     642:	3f 4f       	sbci	r19, 0xFF	; 255
     644:	30 93 05 01 	sts	0x0105, r19	; 0x800105 <acc.1998+0x1>
     648:	20 93 04 01 	sts	0x0104, r18	; 0x800104 <acc.1998>
     64c:	08 95       	ret
	}else if (counter < 26) {
     64e:	8a 31       	cpi	r24, 0x1A	; 26
     650:	91 05       	cpc	r25, r1
     652:	4c f4       	brge	.+18     	; 0x666 <jumpHeight2+0x4c>
		acc = 1;
     654:	81 e0       	ldi	r24, 0x01	; 1
     656:	90 e0       	ldi	r25, 0x00	; 0
     658:	90 93 05 01 	sts	0x0105, r25	; 0x800105 <acc.1998+0x1>
     65c:	80 93 04 01 	sts	0x0104, r24	; 0x800104 <acc.1998>
		height = 70;
     660:	86 e4       	ldi	r24, 0x46	; 70
     662:	90 e0       	ldi	r25, 0x00	; 0
     664:	08 95       	ret
	} else if (counter < 36) {
     666:	84 97       	sbiw	r24, 0x24	; 36
     668:	9c f4       	brge	.+38     	; 0x690 <jumpHeight2+0x76>
		height = 70 + sinJump(acc);
     66a:	80 91 04 01 	lds	r24, 0x0104	; 0x800104 <acc.1998>
     66e:	90 91 05 01 	lds	r25, 0x0105	; 0x800105 <acc.1998+0x1>
     672:	0e 94 f5 02 	call	0x5ea	; 0x5ea <sinJump>
     676:	8a 5b       	subi	r24, 0xBA	; 186
     678:	9f 4f       	sbci	r25, 0xFF	; 255
		acc++;
     67a:	20 91 04 01 	lds	r18, 0x0104	; 0x800104 <acc.1998>
     67e:	30 91 05 01 	lds	r19, 0x0105	; 0x800105 <acc.1998+0x1>
     682:	2f 5f       	subi	r18, 0xFF	; 255
     684:	3f 4f       	sbci	r19, 0xFF	; 255
     686:	30 93 05 01 	sts	0x0105, r19	; 0x800105 <acc.1998+0x1>
     68a:	20 93 04 01 	sts	0x0104, r18	; 0x800104 <acc.1998>
     68e:	08 95       	ret
	} else {
		acc = 1;
     690:	81 e0       	ldi	r24, 0x01	; 1
     692:	90 e0       	ldi	r25, 0x00	; 0
     694:	90 93 05 01 	sts	0x0105, r25	; 0x800105 <acc.1998+0x1>
     698:	80 93 04 01 	sts	0x0104, r24	; 0x800104 <acc.1998>
		height = 90;
     69c:	8a e5       	ldi	r24, 0x5A	; 90
     69e:	90 e0       	ldi	r25, 0x00	; 0
	}
	return height;
}
     6a0:	08 95       	ret

000006a2 <jump>:
	}
	return 0;
}

// TODO implement parabolic jump
void jump(int counter) {
     6a2:	ef 92       	push	r14
     6a4:	ff 92       	push	r15
     6a6:	0f 93       	push	r16
     6a8:	cf 93       	push	r28
     6aa:	df 93       	push	r29
     6ac:	7c 01       	movw	r14, r24
	// clear player
	TFT_Window(player.x, player.y, player.x + 9, player.y + 9, TFT_Landscape);
     6ae:	e0 ed       	ldi	r30, 0xD0	; 208
     6b0:	f4 e0       	ldi	r31, 0x04	; 4
     6b2:	62 81       	ldd	r22, Z+2	; 0x02
     6b4:	80 81       	ld	r24, Z
     6b6:	29 e0       	ldi	r18, 0x09	; 9
     6b8:	26 0f       	add	r18, r22
     6ba:	49 e0       	ldi	r20, 0x09	; 9
     6bc:	48 0f       	add	r20, r24
     6be:	02 e0       	ldi	r16, 0x02	; 2
     6c0:	0e 94 55 04 	call	0x8aa	; 0x8aa <TFT_Window>
	for(int i = 0; i < 100; i++) {
     6c4:	c0 e0       	ldi	r28, 0x00	; 0
     6c6:	d0 e0       	ldi	r29, 0x00	; 0
     6c8:	04 c0       	rjmp	.+8      	; 0x6d2 <jump+0x30>
		SPISend8Bit(0xFF);
     6ca:	8f ef       	ldi	r24, 0xFF	; 255
     6cc:	0e 94 92 03 	call	0x724	; 0x724 <SPISend8Bit>

// TODO implement parabolic jump
void jump(int counter) {
	// clear player
	TFT_Window(player.x, player.y, player.x + 9, player.y + 9, TFT_Landscape);
	for(int i = 0; i < 100; i++) {
     6d0:	21 96       	adiw	r28, 0x01	; 1
     6d2:	c4 36       	cpi	r28, 0x64	; 100
     6d4:	d1 05       	cpc	r29, r1
     6d6:	cc f3       	brlt	.-14     	; 0x6ca <jump+0x28>
		SPISend8Bit(0xFF);
	};
	// set jump 
	player.y = jumpHeight2(counter);
     6d8:	c7 01       	movw	r24, r14
     6da:	0e 94 0d 03 	call	0x61a	; 0x61a <jumpHeight2>
     6de:	68 2f       	mov	r22, r24
     6e0:	e0 ed       	ldi	r30, 0xD0	; 208
     6e2:	f4 e0       	ldi	r31, 0x04	; 4
     6e4:	82 83       	std	Z+2, r24	; 0x02
     6e6:	93 83       	std	Z+3, r25	; 0x03
	// draw player
	TFT_Window(player.x, player.y, player.x + 9, player.y + 9, TFT_Landscape);
     6e8:	80 81       	ld	r24, Z
     6ea:	29 e0       	ldi	r18, 0x09	; 9
     6ec:	26 0f       	add	r18, r22
     6ee:	49 e0       	ldi	r20, 0x09	; 9
     6f0:	48 0f       	add	r20, r24
     6f2:	02 e0       	ldi	r16, 0x02	; 2
     6f4:	0e 94 55 04 	call	0x8aa	; 0x8aa <TFT_Window>
	for(int i = 0; i < 100; i++) {
     6f8:	c0 e0       	ldi	r28, 0x00	; 0
     6fa:	d0 e0       	ldi	r29, 0x00	; 0
     6fc:	04 c0       	rjmp	.+8      	; 0x706 <jump+0x64>
		SPISend8Bit(0x00);
     6fe:	80 e0       	ldi	r24, 0x00	; 0
     700:	0e 94 92 03 	call	0x724	; 0x724 <SPISend8Bit>
	};
	// set jump 
	player.y = jumpHeight2(counter);
	// draw player
	TFT_Window(player.x, player.y, player.x + 9, player.y + 9, TFT_Landscape);
	for(int i = 0; i < 100; i++) {
     704:	21 96       	adiw	r28, 0x01	; 1
     706:	c4 36       	cpi	r28, 0x64	; 100
     708:	d1 05       	cpc	r29, r1
     70a:	cc f3       	brlt	.-14     	; 0x6fe <jump+0x5c>
		SPISend8Bit(0x00);
	};
}
     70c:	df 91       	pop	r29
     70e:	cf 91       	pop	r28
     710:	0f 91       	pop	r16
     712:	ff 90       	pop	r15
     714:	ef 90       	pop	r14
     716:	08 95       	ret

00000718 <SPI_init>:
   0x06 , 0x09 , 0x09 , 0x06 , 0x00 , 0x00 , 0x00 , 0x00	   //°  Anmerkung: selbst hinzugefügt!!	
};

void SPI_init(){
	//set CS, MOSI and SCK to output:
	SPI_DDR |= (1 << CS) | (1 << MOSI) | (1 << SCK);
     718:	84 b1       	in	r24, 0x04	; 4
     71a:	8c 62       	ori	r24, 0x2C	; 44
     71c:	84 b9       	out	0x04, r24	; 4

	//enable SPI, set as master, and clock to fosc/4:
	SPCR = (1 << SPE) | (1 << MSTR);
     71e:	80 e5       	ldi	r24, 0x50	; 80
     720:	8c bd       	out	0x2c, r24	; 44
     722:	08 95       	ret

00000724 <SPISend8Bit>:
	}
}

void SPISend8Bit(uint8_t data)
{
	PORTB &= ~(1<<CS); //CS low
     724:	95 b1       	in	r25, 0x05	; 5
     726:	9b 7f       	andi	r25, 0xFB	; 251
     728:	95 b9       	out	0x05, r25	; 5
	SPDR = data; //load data into register
     72a:	8e bd       	out	0x2e, r24	; 46
	while(!(SPSR & (1 << SPIF))); //wait for transmission complete
     72c:	0d b4       	in	r0, 0x2d	; 45
     72e:	07 fe       	sbrs	r0, 7
     730:	fd cf       	rjmp	.-6      	; 0x72c <SPISend8Bit+0x8>
	PORTB |= (1<<CS); //CS high
     732:	85 b1       	in	r24, 0x05	; 5
     734:	84 60       	ori	r24, 0x04	; 4
     736:	85 b9       	out	0x05, r24	; 5
     738:	08 95       	ret

0000073a <SendCommandSeq>:
	SendCommandSeq(&InitData[2], 10);
	_delay_ms (75);
	SendCommandSeq(&InitData[12], 23);
}

void SendCommandSeq(const uint16_t * data, uint16_t Anzahl){
     73a:	8f 92       	push	r8
     73c:	9f 92       	push	r9
     73e:	af 92       	push	r10
     740:	bf 92       	push	r11
     742:	ef 92       	push	r14
     744:	ff 92       	push	r15
     746:	0f 93       	push	r16
     748:	1f 93       	push	r17
     74a:	cf 93       	push	r28
     74c:	df 93       	push	r29
     74e:	7c 01       	movw	r14, r24
     750:	8b 01       	movw	r16, r22
	uint32_t index;
	uint8_t SendeByte;
	for (index=0; index<Anzahl; index++){
     752:	81 2c       	mov	r8, r1
     754:	91 2c       	mov	r9, r1
     756:	54 01       	movw	r10, r8
     758:	16 c0       	rjmp	.+44     	; 0x786 <SendCommandSeq+0x4c>
		PORTD |= (1<<D_C);						//Data/Command auf High => Kommando-Modus, keine Farbdaten rectangle setzen)
     75a:	8b b1       	in	r24, 0x0b	; 11
     75c:	84 60       	ori	r24, 0x04	; 4
     75e:	8b b9       	out	0x0b, r24	; 11
		SendeByte = (data[index] >> 8) & 0xFF;	//High-Byte des Kommandos
     760:	e4 01       	movw	r28, r8
     762:	cc 0f       	add	r28, r28
     764:	dd 1f       	adc	r29, r29
     766:	ce 0d       	add	r28, r14
     768:	df 1d       	adc	r29, r15
		SPISend8Bit(SendeByte);
     76a:	89 81       	ldd	r24, Y+1	; 0x01
     76c:	0e 94 92 03 	call	0x724	; 0x724 <SPISend8Bit>
		SendeByte = data[index] & 0xFF;			//Low-Byte des Kommandos
		SPISend8Bit(SendeByte);
     770:	88 81       	ld	r24, Y
     772:	0e 94 92 03 	call	0x724	; 0x724 <SPISend8Bit>
		PORTD &= ~(1<<D_C);						//Data/Command auf Low => Daten-Modus
     776:	8b b1       	in	r24, 0x0b	; 11
     778:	8b 7f       	andi	r24, 0xFB	; 251
     77a:	8b b9       	out	0x0b, r24	; 11
}

void SendCommandSeq(const uint16_t * data, uint16_t Anzahl){
	uint32_t index;
	uint8_t SendeByte;
	for (index=0; index<Anzahl; index++){
     77c:	8f ef       	ldi	r24, 0xFF	; 255
     77e:	88 1a       	sub	r8, r24
     780:	98 0a       	sbc	r9, r24
     782:	a8 0a       	sbc	r10, r24
     784:	b8 0a       	sbc	r11, r24
     786:	c8 01       	movw	r24, r16
     788:	a0 e0       	ldi	r26, 0x00	; 0
     78a:	b0 e0       	ldi	r27, 0x00	; 0
     78c:	88 16       	cp	r8, r24
     78e:	99 06       	cpc	r9, r25
     790:	aa 06       	cpc	r10, r26
     792:	bb 06       	cpc	r11, r27
     794:	10 f3       	brcs	.-60     	; 0x75a <SendCommandSeq+0x20>
		SPISend8Bit(SendeByte);
		SendeByte = data[index] & 0xFF;			//Low-Byte des Kommandos
		SPISend8Bit(SendeByte);
		PORTD &= ~(1<<D_C);						//Data/Command auf Low => Daten-Modus
	}
}
     796:	df 91       	pop	r29
     798:	cf 91       	pop	r28
     79a:	1f 91       	pop	r17
     79c:	0f 91       	pop	r16
     79e:	ff 90       	pop	r15
     7a0:	ef 90       	pop	r14
     7a2:	bf 90       	pop	r11
     7a4:	af 90       	pop	r10
     7a6:	9f 90       	pop	r9
     7a8:	8f 90       	pop	r8
     7aa:	08 95       	ret

000007ac <Display_init>:

	//enable SPI, set as master, and clock to fosc/4:
	SPCR = (1 << SPE) | (1 << MSTR);
}

void Display_init() {
     7ac:	cf 93       	push	r28
     7ae:	df 93       	push	r29
     7b0:	cd b7       	in	r28, 0x3d	; 61
     7b2:	de b7       	in	r29, 0x3e	; 62
     7b4:	c6 54       	subi	r28, 0x46	; 70
     7b6:	d1 09       	sbc	r29, r1
     7b8:	0f b6       	in	r0, 0x3f	; 63
     7ba:	f8 94       	cli
     7bc:	de bf       	out	0x3e, r29	; 62
     7be:	0f be       	out	0x3f, r0	; 63
     7c0:	cd bf       	out	0x3d, r28	; 61
	DDRD |= (1<<D_C)|(1<<Reset); //output: PD2 -> Data/Command; PD3 -> Reset
     7c2:	8a b1       	in	r24, 0x0a	; 10
     7c4:	8c 60       	ori	r24, 0x0C	; 12
     7c6:	8a b9       	out	0x0a, r24	; 10
	SPI_init();
     7c8:	0e 94 8c 03 	call	0x718	; 0x718 <SPI_init>
	const uint16_t InitData[] ={
     7cc:	86 e4       	ldi	r24, 0x46	; 70
     7ce:	e8 e0       	ldi	r30, 0x08	; 8
     7d0:	f1 e0       	ldi	r31, 0x01	; 1
     7d2:	de 01       	movw	r26, r28
     7d4:	11 96       	adiw	r26, 0x01	; 1
     7d6:	01 90       	ld	r0, Z+
     7d8:	0d 92       	st	X+, r0
     7da:	8a 95       	dec	r24
     7dc:	e1 f7       	brne	.-8      	; 0x7d6 <Display_init+0x2a>
	#else
		//round up by default
		__ticks_dc = (uint32_t)(ceil(fabs(__tmp)));
	#endif

	__builtin_avr_delay_cycles(__ticks_dc);
     7de:	2f ef       	ldi	r18, 0xFF	; 255
     7e0:	85 ea       	ldi	r24, 0xA5	; 165
     7e2:	9e e0       	ldi	r25, 0x0E	; 14
     7e4:	21 50       	subi	r18, 0x01	; 1
     7e6:	80 40       	sbci	r24, 0x00	; 0
     7e8:	90 40       	sbci	r25, 0x00	; 0
     7ea:	e1 f7       	brne	.-8      	; 0x7e4 <Display_init+0x38>
     7ec:	00 c0       	rjmp	.+0      	; 0x7ee <Display_init+0x42>
     7ee:	00 00       	nop
		0xEF90, 0x0080, 0xEFB0, 0x4902, 0xEF00,
		0x7F01, 0xE181, 0xE202, 0xE276, 0xE183,
		0x8001, 0xEF90, 0x0000
	};
	_delay_ms(300);
	PORTD &= !(1<<Reset);			//Reset-Eingang des Displays auf Low => Beginn Hardware-Reset
     7f0:	8b b1       	in	r24, 0x0b	; 11
     7f2:	1b b8       	out	0x0b, r1	; 11
     7f4:	2f e7       	ldi	r18, 0x7F	; 127
     7f6:	89 ea       	ldi	r24, 0xA9	; 169
     7f8:	93 e0       	ldi	r25, 0x03	; 3
     7fa:	21 50       	subi	r18, 0x01	; 1
     7fc:	80 40       	sbci	r24, 0x00	; 0
     7fe:	90 40       	sbci	r25, 0x00	; 0
     800:	e1 f7       	brne	.-8      	; 0x7fa <Display_init+0x4e>
     802:	00 c0       	rjmp	.+0      	; 0x804 <__DATA_REGION_LENGTH__+0x4>
     804:	00 00       	nop
	_delay_ms(75);
	PORTB |= (1<<CS);				//SSEL auf High
     806:	85 b1       	in	r24, 0x05	; 5
     808:	84 60       	ori	r24, 0x04	; 4
     80a:	85 b9       	out	0x05, r24	; 5
     80c:	2f e7       	ldi	r18, 0x7F	; 127
     80e:	89 ea       	ldi	r24, 0xA9	; 169
     810:	93 e0       	ldi	r25, 0x03	; 3
     812:	21 50       	subi	r18, 0x01	; 1
     814:	80 40       	sbci	r24, 0x00	; 0
     816:	90 40       	sbci	r25, 0x00	; 0
     818:	e1 f7       	brne	.-8      	; 0x812 <__DATA_REGION_LENGTH__+0x12>
     81a:	00 c0       	rjmp	.+0      	; 0x81c <__DATA_REGION_LENGTH__+0x1c>
     81c:	00 00       	nop
	_delay_ms(75);
	PORTD |= (1<<D_C);				//Data/Command auf High
     81e:	8b b1       	in	r24, 0x0b	; 11
     820:	84 60       	ori	r24, 0x04	; 4
     822:	8b b9       	out	0x0b, r24	; 11
     824:	2f e7       	ldi	r18, 0x7F	; 127
     826:	89 ea       	ldi	r24, 0xA9	; 169
     828:	93 e0       	ldi	r25, 0x03	; 3
     82a:	21 50       	subi	r18, 0x01	; 1
     82c:	80 40       	sbci	r24, 0x00	; 0
     82e:	90 40       	sbci	r25, 0x00	; 0
     830:	e1 f7       	brne	.-8      	; 0x82a <__DATA_REGION_LENGTH__+0x2a>
     832:	00 c0       	rjmp	.+0      	; 0x834 <__DATA_REGION_LENGTH__+0x34>
     834:	00 00       	nop
	_delay_ms(75);
	PORTD |= (1<<Reset);			//Reset-Eingang des Displays auf High => Ende Hardware Reset
     836:	8b b1       	in	r24, 0x0b	; 11
     838:	88 60       	ori	r24, 0x08	; 8
     83a:	8b b9       	out	0x0b, r24	; 11
     83c:	2f e7       	ldi	r18, 0x7F	; 127
     83e:	89 ea       	ldi	r24, 0xA9	; 169
     840:	93 e0       	ldi	r25, 0x03	; 3
     842:	21 50       	subi	r18, 0x01	; 1
     844:	80 40       	sbci	r24, 0x00	; 0
     846:	90 40       	sbci	r25, 0x00	; 0
     848:	e1 f7       	brne	.-8      	; 0x842 <__DATA_REGION_LENGTH__+0x42>
     84a:	00 c0       	rjmp	.+0      	; 0x84c <__DATA_REGION_LENGTH__+0x4c>
     84c:	00 00       	nop
	_delay_ms (75);
	SendCommandSeq(&InitData[0], 2);
     84e:	62 e0       	ldi	r22, 0x02	; 2
     850:	70 e0       	ldi	r23, 0x00	; 0
     852:	ce 01       	movw	r24, r28
     854:	01 96       	adiw	r24, 0x01	; 1
     856:	0e 94 9d 03 	call	0x73a	; 0x73a <SendCommandSeq>
     85a:	2f e7       	ldi	r18, 0x7F	; 127
     85c:	89 ea       	ldi	r24, 0xA9	; 169
     85e:	93 e0       	ldi	r25, 0x03	; 3
     860:	21 50       	subi	r18, 0x01	; 1
     862:	80 40       	sbci	r24, 0x00	; 0
     864:	90 40       	sbci	r25, 0x00	; 0
     866:	e1 f7       	brne	.-8      	; 0x860 <__DATA_REGION_LENGTH__+0x60>
     868:	00 c0       	rjmp	.+0      	; 0x86a <__DATA_REGION_LENGTH__+0x6a>
     86a:	00 00       	nop
	_delay_ms (75);
	SendCommandSeq(&InitData[2], 10);
     86c:	6a e0       	ldi	r22, 0x0A	; 10
     86e:	70 e0       	ldi	r23, 0x00	; 0
     870:	ce 01       	movw	r24, r28
     872:	05 96       	adiw	r24, 0x05	; 5
     874:	0e 94 9d 03 	call	0x73a	; 0x73a <SendCommandSeq>
     878:	2f e7       	ldi	r18, 0x7F	; 127
     87a:	89 ea       	ldi	r24, 0xA9	; 169
     87c:	93 e0       	ldi	r25, 0x03	; 3
     87e:	21 50       	subi	r18, 0x01	; 1
     880:	80 40       	sbci	r24, 0x00	; 0
     882:	90 40       	sbci	r25, 0x00	; 0
     884:	e1 f7       	brne	.-8      	; 0x87e <__DATA_REGION_LENGTH__+0x7e>
     886:	00 c0       	rjmp	.+0      	; 0x888 <__DATA_REGION_LENGTH__+0x88>
     888:	00 00       	nop
	_delay_ms (75);
	SendCommandSeq(&InitData[12], 23);
     88a:	67 e1       	ldi	r22, 0x17	; 23
     88c:	70 e0       	ldi	r23, 0x00	; 0
     88e:	ce 01       	movw	r24, r28
     890:	49 96       	adiw	r24, 0x19	; 25
     892:	0e 94 9d 03 	call	0x73a	; 0x73a <SendCommandSeq>
}
     896:	ca 5b       	subi	r28, 0xBA	; 186
     898:	df 4f       	sbci	r29, 0xFF	; 255
     89a:	0f b6       	in	r0, 0x3f	; 63
     89c:	f8 94       	cli
     89e:	de bf       	out	0x3e, r29	; 62
     8a0:	0f be       	out	0x3f, r0	; 63
     8a2:	cd bf       	out	0x3d, r28	; 61
     8a4:	df 91       	pop	r29
     8a6:	cf 91       	pop	r28
     8a8:	08 95       	ret

000008aa <TFT_Window>:
		Ch = Text[Index];
		X += CellWidth*Scale;
	}
}

void TFT_Window(uint8_t x1, uint8_t y1, uint8_t x2, uint8_t y2, U8 orientation) {
     8aa:	0f 93       	push	r16
     8ac:	cf 93       	push	r28
     8ae:	df 93       	push	r29
     8b0:	cd b7       	in	r28, 0x3d	; 61
     8b2:	de b7       	in	r29, 0x3e	; 62
     8b4:	2c 97       	sbiw	r28, 0x0c	; 12
     8b6:	0f b6       	in	r0, 0x3f	; 63
     8b8:	f8 94       	cli
     8ba:	de bf       	out	0x3e, r29	; 62
     8bc:	0f be       	out	0x3f, r0	; 63
     8be:	cd bf       	out	0x3d, r28	; 61
	uint16_t data[] =
     8c0:	9c e0       	ldi	r25, 0x0C	; 12
     8c2:	ee e4       	ldi	r30, 0x4E	; 78
     8c4:	f1 e0       	ldi	r31, 0x01	; 1
     8c6:	de 01       	movw	r26, r28
     8c8:	11 96       	adiw	r26, 0x01	; 1
     8ca:	01 90       	ld	r0, Z+
     8cc:	0d 92       	st	X+, r0
     8ce:	9a 95       	dec	r25
     8d0:	e1 f7       	brne	.-8      	; 0x8ca <TFT_Window+0x20>
		0x1500, // x2
		0x1300, // y1
		0x1600, // y2
	};
	
	switch(orientation) {
     8d2:	02 30       	cpi	r16, 0x02	; 2
     8d4:	b1 f1       	breq	.+108    	; 0x942 <__stack+0x43>
     8d6:	03 30       	cpi	r16, 0x03	; 3
     8d8:	09 f4       	brne	.+2      	; 0x8dc <TFT_Window+0x32>
     8da:	4e c0       	rjmp	.+156    	; 0x978 <__stack+0x79>
     8dc:	01 30       	cpi	r16, 0x01	; 1
     8de:	89 f0       	breq	.+34     	; 0x902 <__stack+0x3>
		default:
		case TFT_Portrait:
		data[2] |= x1;
     8e0:	90 e0       	ldi	r25, 0x00	; 0
     8e2:	92 61       	ori	r25, 0x12	; 18
     8e4:	9e 83       	std	Y+6, r25	; 0x06
     8e6:	8d 83       	std	Y+5, r24	; 0x05
		data[3] |= x2;
     8e8:	50 e0       	ldi	r21, 0x00	; 0
     8ea:	55 61       	ori	r21, 0x15	; 21
     8ec:	58 87       	std	Y+8, r21	; 0x08
     8ee:	4f 83       	std	Y+7, r20	; 0x07
		data[4] |= y1;
     8f0:	70 e0       	ldi	r23, 0x00	; 0
     8f2:	73 61       	ori	r23, 0x13	; 19
     8f4:	7a 87       	std	Y+10, r23	; 0x0a
     8f6:	69 87       	std	Y+9, r22	; 0x09
		data[5] |= y2;
     8f8:	30 e0       	ldi	r19, 0x00	; 0
     8fa:	36 61       	ori	r19, 0x16	; 22
     8fc:	3c 87       	std	Y+12, r19	; 0x0c
     8fe:	2b 87       	std	Y+11, r18	; 0x0b
		break;
     900:	55 c0       	rjmp	.+170    	; 0x9ac <__stack+0xad>
		case TFT_Portrait180:
		data[1] |= 0x03;
     902:	e3 e0       	ldi	r30, 0x03	; 3
     904:	f8 e1       	ldi	r31, 0x18	; 24
     906:	fc 83       	std	Y+4, r31	; 0x04
     908:	eb 83       	std	Y+3, r30	; 0x03
		data[2] |= TFT_MAX_X - x1;
     90a:	e3 e8       	ldi	r30, 0x83	; 131
     90c:	f0 e0       	ldi	r31, 0x00	; 0
     90e:	df 01       	movw	r26, r30
     910:	a8 1b       	sub	r26, r24
     912:	b1 09       	sbc	r27, r1
     914:	cd 01       	movw	r24, r26
     916:	92 61       	ori	r25, 0x12	; 18
     918:	9e 83       	std	Y+6, r25	; 0x06
     91a:	8d 83       	std	Y+5, r24	; 0x05
		data[3] |= TFT_MAX_X - x2;
     91c:	e4 1b       	sub	r30, r20
     91e:	f1 09       	sbc	r31, r1
     920:	f5 61       	ori	r31, 0x15	; 21
     922:	f8 87       	std	Y+8, r31	; 0x08
     924:	ef 83       	std	Y+7, r30	; 0x07
		data[4] |= TFT_MAX_Y - y1;
     926:	8f ea       	ldi	r24, 0xAF	; 175
     928:	90 e0       	ldi	r25, 0x00	; 0
     92a:	ac 01       	movw	r20, r24
     92c:	46 1b       	sub	r20, r22
     92e:	51 09       	sbc	r21, r1
     930:	53 61       	ori	r21, 0x13	; 19
     932:	5a 87       	std	Y+10, r21	; 0x0a
     934:	49 87       	std	Y+9, r20	; 0x09
		data[5] |= TFT_MAX_Y - y2;
     936:	82 1b       	sub	r24, r18
     938:	91 09       	sbc	r25, r1
     93a:	96 61       	ori	r25, 0x16	; 22
     93c:	9c 87       	std	Y+12, r25	; 0x0c
     93e:	8b 87       	std	Y+11, r24	; 0x0b
		break;
     940:	35 c0       	rjmp	.+106    	; 0x9ac <__stack+0xad>
		case TFT_Landscape:
		data[1] |= 0x05;
     942:	e5 e0       	ldi	r30, 0x05	; 5
     944:	f8 e1       	ldi	r31, 0x18	; 24
     946:	fc 83       	std	Y+4, r31	; 0x04
     948:	eb 83       	std	Y+3, r30	; 0x03
		data[2] |= TFT_MAX_X - y1;
     94a:	e3 e8       	ldi	r30, 0x83	; 131
     94c:	f0 e0       	ldi	r31, 0x00	; 0
     94e:	df 01       	movw	r26, r30
     950:	a6 1b       	sub	r26, r22
     952:	b1 09       	sbc	r27, r1
     954:	bd 01       	movw	r22, r26
     956:	72 61       	ori	r23, 0x12	; 18
     958:	7e 83       	std	Y+6, r23	; 0x06
     95a:	6d 83       	std	Y+5, r22	; 0x05
		data[3] |= TFT_MAX_X - y2;
     95c:	e2 1b       	sub	r30, r18
     95e:	f1 09       	sbc	r31, r1
     960:	f5 61       	ori	r31, 0x15	; 21
     962:	f8 87       	std	Y+8, r31	; 0x08
     964:	ef 83       	std	Y+7, r30	; 0x07
		data[4] |= x1;
     966:	90 e0       	ldi	r25, 0x00	; 0
     968:	93 61       	ori	r25, 0x13	; 19
     96a:	9a 87       	std	Y+10, r25	; 0x0a
     96c:	89 87       	std	Y+9, r24	; 0x09
		data[5] |= x2;
     96e:	50 e0       	ldi	r21, 0x00	; 0
     970:	56 61       	ori	r21, 0x16	; 22
     972:	5c 87       	std	Y+12, r21	; 0x0c
     974:	4b 87       	std	Y+11, r20	; 0x0b
		break;
     976:	1a c0       	rjmp	.+52     	; 0x9ac <__stack+0xad>
		case TFT_Landscape180:
		data[1] |= 0x03;
     978:	e3 e0       	ldi	r30, 0x03	; 3
     97a:	f8 e1       	ldi	r31, 0x18	; 24
     97c:	fc 83       	std	Y+4, r31	; 0x04
     97e:	eb 83       	std	Y+3, r30	; 0x03
		data[2] |= y1;
     980:	70 e0       	ldi	r23, 0x00	; 0
     982:	72 61       	ori	r23, 0x12	; 18
     984:	7e 83       	std	Y+6, r23	; 0x06
     986:	6d 83       	std	Y+5, r22	; 0x05
		data[3] |= y2;
     988:	30 e0       	ldi	r19, 0x00	; 0
     98a:	35 61       	ori	r19, 0x15	; 21
     98c:	38 87       	std	Y+8, r19	; 0x08
     98e:	2f 83       	std	Y+7, r18	; 0x07
		data[4] |= TFT_MAX_Y - x1;
     990:	2f ea       	ldi	r18, 0xAF	; 175
     992:	30 e0       	ldi	r19, 0x00	; 0
     994:	b9 01       	movw	r22, r18
     996:	68 1b       	sub	r22, r24
     998:	71 09       	sbc	r23, r1
     99a:	cb 01       	movw	r24, r22
     99c:	93 61       	ori	r25, 0x13	; 19
     99e:	9a 87       	std	Y+10, r25	; 0x0a
     9a0:	89 87       	std	Y+9, r24	; 0x09
		data[5] |= TFT_MAX_Y - x2;
     9a2:	24 1b       	sub	r18, r20
     9a4:	31 09       	sbc	r19, r1
     9a6:	36 61       	ori	r19, 0x16	; 22
     9a8:	3c 87       	std	Y+12, r19	; 0x0c
     9aa:	2b 87       	std	Y+11, r18	; 0x0b
		break;
	}
	SendCommandSeq(data, 6);
     9ac:	66 e0       	ldi	r22, 0x06	; 6
     9ae:	70 e0       	ldi	r23, 0x00	; 0
     9b0:	ce 01       	movw	r24, r28
     9b2:	01 96       	adiw	r24, 0x01	; 1
     9b4:	0e 94 9d 03 	call	0x73a	; 0x73a <SendCommandSeq>
     9b8:	2c 96       	adiw	r28, 0x0c	; 12
     9ba:	0f b6       	in	r0, 0x3f	; 63
     9bc:	f8 94       	cli
     9be:	de bf       	out	0x3e, r29	; 62
     9c0:	0f be       	out	0x3f, r0	; 63
     9c2:	cd bf       	out	0x3d, r28	; 61
     9c4:	df 91       	pop	r29
     9c6:	cf 91       	pop	r28
     9c8:	0f 91       	pop	r16
     9ca:	08 95       	ret

000009cc <TFT_Print>:
	while(!(SPSR & (1 << SPIF))); //wait for transmission complete
	PORTB |= (1<<CS); //CS high
}

void TFT_Print(char* Text, U8 X, U8 Y, U8 Scale, U8 ForeColor, U8 BackColor, U8 Display_Orientation)
{
     9cc:	2f 92       	push	r2
     9ce:	3f 92       	push	r3
     9d0:	4f 92       	push	r4
     9d2:	5f 92       	push	r5
     9d4:	6f 92       	push	r6
     9d6:	7f 92       	push	r7
     9d8:	8f 92       	push	r8
     9da:	9f 92       	push	r9
     9dc:	af 92       	push	r10
     9de:	bf 92       	push	r11
     9e0:	cf 92       	push	r12
     9e2:	df 92       	push	r13
     9e4:	ef 92       	push	r14
     9e6:	ff 92       	push	r15
     9e8:	0f 93       	push	r16
     9ea:	1f 93       	push	r17
     9ec:	cf 93       	push	r28
     9ee:	df 93       	push	r29
     9f0:	cd b7       	in	r28, 0x3d	; 61
     9f2:	de b7       	in	r29, 0x3e	; 62
     9f4:	28 97       	sbiw	r28, 0x08	; 8
     9f6:	0f b6       	in	r0, 0x3f	; 63
     9f8:	f8 94       	cli
     9fa:	de bf       	out	0x3e, r29	; 62
     9fc:	0f be       	out	0x3f, r0	; 63
     9fe:	cd bf       	out	0x3d, r28	; 61
     a00:	1c 01       	movw	r2, r24
     a02:	86 2f       	mov	r24, r22
     a04:	4b 83       	std	Y+3, r20	; 0x03
     a06:	52 2e       	mov	r5, r18
     a08:	f0 2e       	mov	r15, r16
     a0a:	ce 82       	std	Y+6, r12	; 0x06
	CharHeight = 8;	//Anzahl der Pixel der Schrifthöhe (ohne Leerzeichen für den Zeilenabstand)
	CellWidth = 6;	//Anzahl der Pixel der Schriftbreite inkl. Leerzeichen; hier kann man den Buchstabenabstand verändern
	CellHeight = 9;	//Anzahl der Pixel der Schrifthöhe inkl. Leerzeichen; hier kann man den Zeilenabstand verändern

	Index = 0;
	Ch = Text[Index];				//in Ch wird der Wert (ASCII 32) des darzustellen Zeichens abgelegt
     a0c:	f1 01       	movw	r30, r2
     a0e:	40 81       	ld	r20, Z
	CharWidth = 5;	//Anzahl der Pixel der Schriftbreite (ohne Leerzeichen für den Buchstabenabstand)
	CharHeight = 8;	//Anzahl der Pixel der Schrifthöhe (ohne Leerzeichen für den Zeilenabstand)
	CellWidth = 6;	//Anzahl der Pixel der Schriftbreite inkl. Leerzeichen; hier kann man den Buchstabenabstand verändern
	CellHeight = 9;	//Anzahl der Pixel der Schrifthöhe inkl. Leerzeichen; hier kann man den Zeilenabstand verändern

	Index = 0;
     a10:	19 82       	std	Y+1, r1	; 0x01
	Ch = Text[Index];				//in Ch wird der Wert (ASCII 32) des darzustellen Zeichens abgelegt
	while( Ch != 0x00 )
     a12:	a3 c0       	rjmp	.+326    	; 0xb5a <TFT_Print+0x18e>
	{
		if (Ch > 122)								//Definition einiger Sonderzeichen am Ende der Schrifttabelle
     a14:	4b 37       	cpi	r20, 0x7B	; 123
     a16:	e0 f0       	brcs	.+56     	; 0xa50 <TFT_Print+0x84>
		{
			switch (Ch)								//Hier werden ungenutzte ASCII-Zeichen eliminiert
     a18:	50 e0       	ldi	r21, 0x00	; 0
     a1a:	fa 01       	movw	r30, r20
     a1c:	e0 5b       	subi	r30, 0xB0	; 176
     a1e:	f1 09       	sbc	r31, r1
     a20:	ed 34       	cpi	r30, 0x4D	; 77
     a22:	f1 05       	cpc	r31, r1
     a24:	90 f4       	brcc	.+36     	; 0xa4a <TFT_Print+0x7e>
     a26:	ec 5c       	subi	r30, 0xCC	; 204
     a28:	ff 4f       	sbci	r31, 0xFF	; 255
     a2a:	0c 94 8b 0a 	jmp	0x1516	; 0x1516 <__tablejump2__>
			{
				case 228: Ch = 127; break;			// ä ist an Pos. 127 etc.
     a2e:	4f e7       	ldi	r20, 0x7F	; 127
     a30:	0f c0       	rjmp	.+30     	; 0xa50 <TFT_Print+0x84>
				case 246: Ch = 128; break;			// ö
				case 252: Ch = 129; break;			// ü
     a32:	41 e8       	ldi	r20, 0x81	; 129
     a34:	0d c0       	rjmp	.+26     	; 0xa50 <TFT_Print+0x84>
				case 196: Ch = 130; break;			// Ä
     a36:	42 e8       	ldi	r20, 0x82	; 130
     a38:	0b c0       	rjmp	.+22     	; 0xa50 <TFT_Print+0x84>
				case 214: Ch = 131; break;			// Ö
     a3a:	43 e8       	ldi	r20, 0x83	; 131
     a3c:	09 c0       	rjmp	.+18     	; 0xa50 <TFT_Print+0x84>
				case 220: Ch = 132; break;			// Ü
     a3e:	44 e8       	ldi	r20, 0x84	; 132
     a40:	07 c0       	rjmp	.+14     	; 0xa50 <TFT_Print+0x84>
				case 223: Ch = 133; break;			// ß
     a42:	45 e8       	ldi	r20, 0x85	; 133
     a44:	05 c0       	rjmp	.+10     	; 0xa50 <TFT_Print+0x84>
				case 176: Ch = 134; break;			// ° ist an Pos. 134
     a46:	46 e8       	ldi	r20, 0x86	; 134
     a48:	03 c0       	rjmp	.+6      	; 0xa50 <TFT_Print+0x84>
				default: Ch = '?'; break;				// nicht erlaubt: wechsel zu ?
     a4a:	4f e3       	ldi	r20, 0x3F	; 63
     a4c:	01 c0       	rjmp	.+2      	; 0xa50 <TFT_Print+0x84>
		if (Ch > 122)								//Definition einiger Sonderzeichen am Ende der Schrifttabelle
		{
			switch (Ch)								//Hier werden ungenutzte ASCII-Zeichen eliminiert
			{
				case 228: Ch = 127; break;			// ä ist an Pos. 127 etc.
				case 246: Ch = 128; break;			// ö
     a4e:	40 e8       	ldi	r20, 0x80	; 128
				case 176: Ch = 134; break;			// ° ist an Pos. 134
				default: Ch = '?'; break;				// nicht erlaubt: wechsel zu ?
			}
		}
		
		Ch -= 32; 	//von Ch wird 32 abgezogen, da wir keine ASCII-Zeichen kleiner als ASCII 32 verwenden; die Schrifttabelle startet mit ASCII 32, das ist das Leerzeichen
     a50:	40 52       	subi	r20, 0x20	; 32
     a52:	4c 83       	std	Y+4, r20	; 0x04
		TFT_Window(X, Y, X+CellWidth*Scale-1, Y+CellHeight*Scale-1, Display_Orientation);//Aufruf der Funktion TFT_Window mit Übergabe von x1, x2, y1, y2 und Display-Ausrichtung
     a54:	95 2d       	mov	r25, r5
     a56:	99 0f       	add	r25, r25
     a58:	95 0d       	add	r25, r5
     a5a:	29 2f       	mov	r18, r25
     a5c:	22 0f       	add	r18, r18
     a5e:	28 0f       	add	r18, r24
     a60:	2a 83       	std	Y+2, r18	; 0x02
     a62:	25 2d       	mov	r18, r5
     a64:	22 0f       	add	r18, r18
     a66:	22 0f       	add	r18, r18
     a68:	22 0f       	add	r18, r18
     a6a:	25 0d       	add	r18, r5
     a6c:	fb 81       	ldd	r31, Y+3	; 0x03
     a6e:	2f 0f       	add	r18, r31
     a70:	21 50       	subi	r18, 0x01	; 1
     a72:	4a 81       	ldd	r20, Y+2	; 0x02
     a74:	41 50       	subi	r20, 0x01	; 1
     a76:	0e 81       	ldd	r16, Y+6	; 0x06
     a78:	6f 2f       	mov	r22, r31
     a7a:	0e 94 55 04 	call	0x8aa	; 0x8aa <TFT_Window>
		BytePos = Ch * CharHeight;
     a7e:	2c 81       	ldd	r18, Y+4	; 0x04
     a80:	82 2f       	mov	r24, r18
     a82:	90 e0       	ldi	r25, 0x00	; 0
     a84:	fc 01       	movw	r30, r24
     a86:	ee 0f       	add	r30, r30
     a88:	ff 1f       	adc	r31, r31
     a8a:	ee 0f       	add	r30, r30
     a8c:	ff 1f       	adc	r31, r31
     a8e:	ee 0f       	add	r30, r30
     a90:	ff 1f       	adc	r31, r31
     a92:	fd 83       	std	Y+5, r31	; 0x05
     a94:	ec 83       	std	Y+4, r30	; 0x04

		for (Loop=0; Loop < CellHeight; ++Loop)			//Zählschleife, um Byte pro Byte eines Zeichens (insgesamt 8 Byte pro Zeichen) ein zu lesen
     a96:	81 2c       	mov	r8, r1
     a98:	91 2c       	mov	r9, r1
     a9a:	52 c0       	rjmp	.+164    	; 0xb40 <TFT_Print+0x174>
		{
			Byte = Font[BytePos+Loop];									//Byte-Wert des Zeichens holen (zeilenweise) aus Schrifttabelle
     a9c:	ec 81       	ldd	r30, Y+4	; 0x04
     a9e:	fd 81       	ldd	r31, Y+5	; 0x05
     aa0:	e8 0d       	add	r30, r8
     aa2:	f9 1d       	adc	r31, r9
     aa4:	e8 57       	subi	r30, 0x78	; 120
     aa6:	fe 4f       	sbci	r31, 0xFE	; 254
     aa8:	40 80       	ld	r4, Z
			if (Loop >= CharHeight) Byte = 0;						//Zeilen mit Hintergrundfarbe am unteren Ende des Zeichens
     aaa:	f8 e0       	ldi	r31, 0x08	; 8
     aac:	8f 16       	cp	r8, r31
     aae:	91 04       	cpc	r9, r1
     ab0:	08 f0       	brcs	.+2      	; 0xab4 <TFT_Print+0xe8>
     ab2:	41 2c       	mov	r4, r1
			for (Pixel=1; Pixel <= Scale; ++Pixel)			//Wiederholungen gemäß Scale-Faktor; z.B. bei scale=2 wird die Zeile zweimal gezeichnet
     ab4:	aa 24       	eor	r10, r10
     ab6:	a3 94       	inc	r10
     ab8:	b1 2c       	mov	r11, r1
     aba:	3a c0       	rjmp	.+116    	; 0xb30 <TFT_Print+0x164>
			{
				XPixelTmp = (CellWidth-CharWidth)*Scale;	//Anzahl der leeren Spalten abhängig vom Schrifttyp (hier ist nur ein Typ eingebunden) und der Scalierung
     abc:	25 2d       	mov	r18, r5
     abe:	30 e0       	ldi	r19, 0x00	; 0
     ac0:	38 87       	std	Y+8, r19	; 0x08
     ac2:	2f 83       	std	Y+7, r18	; 0x07
				for (Charbit=1; Charbit<=XPixelTmp; ++Charbit)
     ac4:	01 e0       	ldi	r16, 0x01	; 1
     ac6:	10 e0       	ldi	r17, 0x00	; 0
     ac8:	05 c0       	rjmp	.+10     	; 0xad4 <TFT_Print+0x108>
				{
					//Leere Spalte => wird immer mit der Hintergrundfarbe dargestellt
					SPISend8Bit(BackColor);			//Aufruf der Funktion TFT_SPI_16BitPixelSend mit der Übergabe der Hintergrundfarbe
     aca:	8e 2d       	mov	r24, r14
     acc:	0e 94 92 03 	call	0x724	; 0x724 <SPISend8Bit>
			Byte = Font[BytePos+Loop];									//Byte-Wert des Zeichens holen (zeilenweise) aus Schrifttabelle
			if (Loop >= CharHeight) Byte = 0;						//Zeilen mit Hintergrundfarbe am unteren Ende des Zeichens
			for (Pixel=1; Pixel <= Scale; ++Pixel)			//Wiederholungen gemäß Scale-Faktor; z.B. bei scale=2 wird die Zeile zweimal gezeichnet
			{
				XPixelTmp = (CellWidth-CharWidth)*Scale;	//Anzahl der leeren Spalten abhängig vom Schrifttyp (hier ist nur ein Typ eingebunden) und der Scalierung
				for (Charbit=1; Charbit<=XPixelTmp; ++Charbit)
     ad0:	0f 5f       	subi	r16, 0xFF	; 255
     ad2:	1f 4f       	sbci	r17, 0xFF	; 255
     ad4:	8f 81       	ldd	r24, Y+7	; 0x07
     ad6:	98 85       	ldd	r25, Y+8	; 0x08
     ad8:	80 17       	cp	r24, r16
     ada:	91 07       	cpc	r25, r17
     adc:	b4 f7       	brge	.-20     	; 0xaca <TFT_Print+0xfe>
     ade:	68 94       	set
     ae0:	cc 24       	eor	r12, r12
     ae2:	c2 f8       	bld	r12, 2
     ae4:	d1 2c       	mov	r13, r1
     ae6:	1f c0       	rjmp	.+62     	; 0xb26 <TFT_Print+0x15a>
				}

				for (Charbit=CharWidth-1; Charbit>=0; --Charbit)	//prüfen aller Bits pro Zeile eines Zeichens (ein Zeichen hat inkl. Leerzeile 9 Zeilen)
				{
					//Prüfen, ob für das Schriftzeichen das Pixel in der Schriftfarbe oder in der Hintergrundfarbe dargestellt werden muss
					if ( (Byte >> Charbit) & 0x01 )
     ae8:	84 2d       	mov	r24, r4
     aea:	90 e0       	ldi	r25, 0x00	; 0
     aec:	0c 2c       	mov	r0, r12
     aee:	02 c0       	rjmp	.+4      	; 0xaf4 <TFT_Print+0x128>
     af0:	95 95       	asr	r25
     af2:	87 95       	ror	r24
     af4:	0a 94       	dec	r0
     af6:	e2 f7       	brpl	.-8      	; 0xaf0 <TFT_Print+0x124>
     af8:	80 ff       	sbrs	r24, 0
     afa:	02 c0       	rjmp	.+4      	; 0xb00 <TFT_Print+0x134>
					Color = ForeColor;						    		//pixel = 1: Schriftfarbe
     afc:	0f 2d       	mov	r16, r15
     afe:	01 c0       	rjmp	.+2      	; 0xb02 <TFT_Print+0x136>
					else
					Color = BackColor;									//pixel = 0: Hintergrundfarbe
     b00:	0e 2d       	mov	r16, r14
					for (C=1; C<=Scale; ++C)								//Anzahl der horizontalen Wiederholungen abhängig vom Skalierungsfaktor (scale),z.B. scale=2 => 2 Pixel
     b02:	66 24       	eor	r6, r6
     b04:	63 94       	inc	r6
     b06:	71 2c       	mov	r7, r1
     b08:	06 c0       	rjmp	.+12     	; 0xb16 <TFT_Print+0x14a>
					SPISend8Bit(Color);  			//zeichne Pixel entweder mit der Schriftfarbe oder mit der Hintergrundfarbe
     b0a:	80 2f       	mov	r24, r16
     b0c:	0e 94 92 03 	call	0x724	; 0x724 <SPISend8Bit>
					//Prüfen, ob für das Schriftzeichen das Pixel in der Schriftfarbe oder in der Hintergrundfarbe dargestellt werden muss
					if ( (Byte >> Charbit) & 0x01 )
					Color = ForeColor;						    		//pixel = 1: Schriftfarbe
					else
					Color = BackColor;									//pixel = 0: Hintergrundfarbe
					for (C=1; C<=Scale; ++C)								//Anzahl der horizontalen Wiederholungen abhängig vom Skalierungsfaktor (scale),z.B. scale=2 => 2 Pixel
     b10:	9f ef       	ldi	r25, 0xFF	; 255
     b12:	69 1a       	sub	r6, r25
     b14:	79 0a       	sbc	r7, r25
     b16:	ef 81       	ldd	r30, Y+7	; 0x07
     b18:	f8 85       	ldd	r31, Y+8	; 0x08
     b1a:	e6 15       	cp	r30, r6
     b1c:	f7 05       	cpc	r31, r7
     b1e:	ac f7       	brge	.-22     	; 0xb0a <TFT_Print+0x13e>
				{
					//Leere Spalte => wird immer mit der Hintergrundfarbe dargestellt
					SPISend8Bit(BackColor);			//Aufruf der Funktion TFT_SPI_16BitPixelSend mit der Übergabe der Hintergrundfarbe
				}

				for (Charbit=CharWidth-1; Charbit>=0; --Charbit)	//prüfen aller Bits pro Zeile eines Zeichens (ein Zeichen hat inkl. Leerzeile 9 Zeilen)
     b20:	f1 e0       	ldi	r31, 0x01	; 1
     b22:	cf 1a       	sub	r12, r31
     b24:	d1 08       	sbc	r13, r1
     b26:	dd 20       	and	r13, r13
     b28:	fc f6       	brge	.-66     	; 0xae8 <TFT_Print+0x11c>

		for (Loop=0; Loop < CellHeight; ++Loop)			//Zählschleife, um Byte pro Byte eines Zeichens (insgesamt 8 Byte pro Zeichen) ein zu lesen
		{
			Byte = Font[BytePos+Loop];									//Byte-Wert des Zeichens holen (zeilenweise) aus Schrifttabelle
			if (Loop >= CharHeight) Byte = 0;						//Zeilen mit Hintergrundfarbe am unteren Ende des Zeichens
			for (Pixel=1; Pixel <= Scale; ++Pixel)			//Wiederholungen gemäß Scale-Faktor; z.B. bei scale=2 wird die Zeile zweimal gezeichnet
     b2a:	2f ef       	ldi	r18, 0xFF	; 255
     b2c:	a2 1a       	sub	r10, r18
     b2e:	b2 0a       	sbc	r11, r18
     b30:	85 2d       	mov	r24, r5
     b32:	90 e0       	ldi	r25, 0x00	; 0
     b34:	8a 15       	cp	r24, r10
     b36:	9b 05       	cpc	r25, r11
     b38:	08 f6       	brcc	.-126    	; 0xabc <TFT_Print+0xf0>
		
		Ch -= 32; 	//von Ch wird 32 abgezogen, da wir keine ASCII-Zeichen kleiner als ASCII 32 verwenden; die Schrifttabelle startet mit ASCII 32, das ist das Leerzeichen
		TFT_Window(X, Y, X+CellWidth*Scale-1, Y+CellHeight*Scale-1, Display_Orientation);//Aufruf der Funktion TFT_Window mit Übergabe von x1, x2, y1, y2 und Display-Ausrichtung
		BytePos = Ch * CharHeight;

		for (Loop=0; Loop < CellHeight; ++Loop)			//Zählschleife, um Byte pro Byte eines Zeichens (insgesamt 8 Byte pro Zeichen) ein zu lesen
     b3a:	3f ef       	ldi	r19, 0xFF	; 255
     b3c:	83 1a       	sub	r8, r19
     b3e:	93 0a       	sbc	r9, r19
     b40:	89 e0       	ldi	r24, 0x09	; 9
     b42:	88 16       	cp	r8, r24
     b44:	91 04       	cpc	r9, r1
     b46:	08 f4       	brcc	.+2      	; 0xb4a <TFT_Print+0x17e>
     b48:	a9 cf       	rjmp	.-174    	; 0xa9c <TFT_Print+0xd0>
					for (C=1; C<=Scale; ++C)								//Anzahl der horizontalen Wiederholungen abhängig vom Skalierungsfaktor (scale),z.B. scale=2 => 2 Pixel
					SPISend8Bit(Color);  			//zeichne Pixel entweder mit der Schriftfarbe oder mit der Hintergrundfarbe
				}				//prüfe nächstes Bit des Schriftzeichens
			}					//Abhängig vom Scale-Faktor wird die Zeile erneut gezeichnet
		}
		Index++;
     b4a:	99 81       	ldd	r25, Y+1	; 0x01
     b4c:	9f 5f       	subi	r25, 0xFF	; 255
     b4e:	99 83       	std	Y+1, r25	; 0x01
		Ch = Text[Index];
     b50:	f1 01       	movw	r30, r2
     b52:	e9 0f       	add	r30, r25
     b54:	f1 1d       	adc	r31, r1
     b56:	40 81       	ld	r20, Z
		X += CellWidth*Scale;
     b58:	8a 81       	ldd	r24, Y+2	; 0x02
	CellWidth = 6;	//Anzahl der Pixel der Schriftbreite inkl. Leerzeichen; hier kann man den Buchstabenabstand verändern
	CellHeight = 9;	//Anzahl der Pixel der Schrifthöhe inkl. Leerzeichen; hier kann man den Zeilenabstand verändern

	Index = 0;
	Ch = Text[Index];				//in Ch wird der Wert (ASCII 32) des darzustellen Zeichens abgelegt
	while( Ch != 0x00 )
     b5a:	41 11       	cpse	r20, r1
     b5c:	5b cf       	rjmp	.-330    	; 0xa14 <TFT_Print+0x48>
		}
		Index++;
		Ch = Text[Index];
		X += CellWidth*Scale;
	}
}
     b5e:	28 96       	adiw	r28, 0x08	; 8
     b60:	0f b6       	in	r0, 0x3f	; 63
     b62:	f8 94       	cli
     b64:	de bf       	out	0x3e, r29	; 62
     b66:	0f be       	out	0x3f, r0	; 63
     b68:	cd bf       	out	0x3d, r28	; 61
     b6a:	df 91       	pop	r29
     b6c:	cf 91       	pop	r28
     b6e:	1f 91       	pop	r17
     b70:	0f 91       	pop	r16
     b72:	ff 90       	pop	r15
     b74:	ef 90       	pop	r14
     b76:	df 90       	pop	r13
     b78:	cf 90       	pop	r12
     b7a:	bf 90       	pop	r11
     b7c:	af 90       	pop	r10
     b7e:	9f 90       	pop	r9
     b80:	8f 90       	pop	r8
     b82:	7f 90       	pop	r7
     b84:	6f 90       	pop	r6
     b86:	5f 90       	pop	r5
     b88:	4f 90       	pop	r4
     b8a:	3f 90       	pop	r3
     b8c:	2f 90       	pop	r2
     b8e:	08 95       	ret

00000b90 <Sonic_init>:
		SPISend8Bit(0xFF);
	};
	char str[12];
	sprintf(str, "%d", counter);
	TFT_Print(str, 85, 42, 2, TFT_8BitBlack, TFT_8BitWhite, TFT_Landscape);
}
     b90:	8a b1       	in	r24, 0x0a	; 10
     b92:	81 60       	ori	r24, 0x01	; 1
     b94:	8a b9       	out	0x0a, r24	; 10
     b96:	87 b1       	in	r24, 0x07	; 7
     b98:	8f 7d       	andi	r24, 0xDF	; 223
     b9a:	87 b9       	out	0x07, r24	; 7
     b9c:	e8 e6       	ldi	r30, 0x68	; 104
     b9e:	f0 e0       	ldi	r31, 0x00	; 0
     ba0:	80 81       	ld	r24, Z
     ba2:	82 60       	ori	r24, 0x02	; 2
     ba4:	80 83       	st	Z, r24
     ba6:	ec e6       	ldi	r30, 0x6C	; 108
     ba8:	f0 e0       	ldi	r31, 0x00	; 0
     baa:	80 81       	ld	r24, Z
     bac:	80 62       	ori	r24, 0x20	; 32
     bae:	80 83       	st	Z, r24
     bb0:	08 95       	ret

00000bb2 <Buttons_init>:
     bb2:	8a b1       	in	r24, 0x0a	; 10
     bb4:	8d 7f       	andi	r24, 0xFD	; 253
     bb6:	8a b9       	out	0x0a, r24	; 10
     bb8:	8b b1       	in	r24, 0x0b	; 11
     bba:	82 60       	ori	r24, 0x02	; 2
     bbc:	8b b9       	out	0x0b, r24	; 11
     bbe:	e8 e6       	ldi	r30, 0x68	; 104
     bc0:	f0 e0       	ldi	r31, 0x00	; 0
     bc2:	80 81       	ld	r24, Z
     bc4:	84 60       	ori	r24, 0x04	; 4
     bc6:	80 83       	st	Z, r24
     bc8:	ed e6       	ldi	r30, 0x6D	; 109
     bca:	f0 e0       	ldi	r31, 0x00	; 0
     bcc:	80 81       	ld	r24, Z
     bce:	82 60       	ori	r24, 0x02	; 2
     bd0:	80 83       	st	Z, r24
     bd2:	08 95       	ret

00000bd4 <Timer_init>:
     bd4:	ee e6       	ldi	r30, 0x6E	; 110
     bd6:	f0 e0       	ldi	r31, 0x00	; 0
     bd8:	80 81       	ld	r24, Z
     bda:	82 60       	ori	r24, 0x02	; 2
     bdc:	80 83       	st	Z, r24
     bde:	8a ef       	ldi	r24, 0xFA	; 250
     be0:	87 bd       	out	0x27, r24	; 39
     be2:	84 b5       	in	r24, 0x24	; 36
     be4:	82 60       	ori	r24, 0x02	; 2
     be6:	84 bd       	out	0x24, r24	; 36
     be8:	84 b5       	in	r24, 0x24	; 36
     bea:	8e 7f       	andi	r24, 0xFE	; 254
     bec:	84 bd       	out	0x24, r24	; 36
     bee:	85 b5       	in	r24, 0x25	; 37
     bf0:	87 7f       	andi	r24, 0xF7	; 247
     bf2:	85 bd       	out	0x25, r24	; 37
     bf4:	85 b5       	in	r24, 0x25	; 37
     bf6:	83 60       	ori	r24, 0x03	; 3
     bf8:	85 bd       	out	0x25, r24	; 37
     bfa:	85 b5       	in	r24, 0x25	; 37
     bfc:	8b 7f       	andi	r24, 0xFB	; 251
     bfe:	85 bd       	out	0x25, r24	; 37
     c00:	e0 e7       	ldi	r30, 0x70	; 112
     c02:	f0 e0       	ldi	r31, 0x00	; 0
     c04:	80 81       	ld	r24, Z
     c06:	82 60       	ori	r24, 0x02	; 2
     c08:	80 83       	st	Z, r24
     c0a:	84 e7       	ldi	r24, 0x74	; 116
     c0c:	80 93 b3 00 	sts	0x00B3, r24	; 0x8000b3 <__TEXT_REGION_LENGTH__+0x7f80b3>
     c10:	e0 eb       	ldi	r30, 0xB0	; 176
     c12:	f0 e0       	ldi	r31, 0x00	; 0
     c14:	80 81       	ld	r24, Z
     c16:	82 60       	ori	r24, 0x02	; 2
     c18:	80 83       	st	Z, r24
     c1a:	80 81       	ld	r24, Z
     c1c:	8e 7f       	andi	r24, 0xFE	; 254
     c1e:	80 83       	st	Z, r24
     c20:	e1 eb       	ldi	r30, 0xB1	; 177
     c22:	f0 e0       	ldi	r31, 0x00	; 0
     c24:	80 81       	ld	r24, Z
     c26:	87 7f       	andi	r24, 0xF7	; 247
     c28:	80 83       	st	Z, r24
     c2a:	80 81       	ld	r24, Z
     c2c:	8e 7f       	andi	r24, 0xFE	; 254
     c2e:	80 83       	st	Z, r24
     c30:	80 81       	ld	r24, Z
     c32:	8b 7f       	andi	r24, 0xFB	; 251
     c34:	80 83       	st	Z, r24
     c36:	08 95       	ret

00000c38 <init>:
     c38:	78 94       	sei
     c3a:	0e 94 c8 05 	call	0xb90	; 0xb90 <Sonic_init>
     c3e:	0e 94 d6 03 	call	0x7ac	; 0x7ac <Display_init>
     c42:	0e 94 19 01 	call	0x232	; 0x232 <InitGame>
     c46:	0e 94 d9 05 	call	0xbb2	; 0xbb2 <Buttons_init>
     c4a:	0e 94 ea 05 	call	0xbd4	; 0xbd4 <Timer_init>
     c4e:	87 b1       	in	r24, 0x07	; 7
     c50:	8e 61       	ori	r24, 0x1E	; 30
     c52:	87 b9       	out	0x07, r24	; 7
     c54:	08 95       	ret

00000c56 <main>:
     c56:	0e 94 1c 06 	call	0xc38	; 0xc38 <init>
     c5a:	ff cf       	rjmp	.-2      	; 0xc5a <main+0x4>

00000c5c <__vector_5>:
     c5c:	1f 92       	push	r1
     c5e:	0f 92       	push	r0
     c60:	0f b6       	in	r0, 0x3f	; 63
     c62:	0f 92       	push	r0
     c64:	11 24       	eor	r1, r1
     c66:	8f 93       	push	r24
     c68:	9f 93       	push	r25
     c6a:	81 e0       	ldi	r24, 0x01	; 1
     c6c:	90 e0       	ldi	r25, 0x00	; 0
     c6e:	90 93 f0 04 	sts	0x04F0, r25	; 0x8004f0 <jumping+0x1>
     c72:	80 93 ef 04 	sts	0x04EF, r24	; 0x8004ef <jumping>
     c76:	9f 91       	pop	r25
     c78:	8f 91       	pop	r24
     c7a:	0f 90       	pop	r0
     c7c:	0f be       	out	0x3f, r0	; 63
     c7e:	0f 90       	pop	r0
     c80:	1f 90       	pop	r1
     c82:	18 95       	reti

00000c84 <__vector_4>:
     c84:	1f 92       	push	r1
     c86:	0f 92       	push	r0
     c88:	0f b6       	in	r0, 0x3f	; 63
     c8a:	0f 92       	push	r0
     c8c:	11 24       	eor	r1, r1
     c8e:	8f 93       	push	r24
     c90:	9f 93       	push	r25
     c92:	ef 93       	push	r30
     c94:	ff 93       	push	r31
     c96:	35 9b       	sbis	0x06, 5	; 6
     c98:	05 c0       	rjmp	.+10     	; 0xca4 <__vector_4+0x20>
     c9a:	10 92 ec 04 	sts	0x04EC, r1	; 0x8004ec <timerCounter+0x1>
     c9e:	10 92 eb 04 	sts	0x04EB, r1	; 0x8004eb <timerCounter>
     ca2:	2c c0       	rjmp	.+88     	; 0xcfc <__vector_4+0x78>
     ca4:	e1 eb       	ldi	r30, 0xB1	; 177
     ca6:	f0 e0       	ldi	r31, 0x00	; 0
     ca8:	80 81       	ld	r24, Z
     caa:	8d 7f       	andi	r24, 0xFD	; 253
     cac:	80 83       	st	Z, r24
     cae:	80 91 eb 04 	lds	r24, 0x04EB	; 0x8004eb <timerCounter>
     cb2:	90 91 ec 04 	lds	r25, 0x04EC	; 0x8004ec <timerCounter+0x1>
     cb6:	80 35       	cpi	r24, 0x50	; 80
     cb8:	91 05       	cpc	r25, r1
     cba:	18 f4       	brcc	.+6      	; 0xcc2 <__vector_4+0x3e>
     cbc:	10 92 e9 04 	sts	0x04E9, r1	; 0x8004e9 <idleBool>
     cc0:	19 c0       	rjmp	.+50     	; 0xcf4 <__vector_4+0x70>
     cc2:	88 b1       	in	r24, 0x08	; 8
     cc4:	8f 7e       	andi	r24, 0xEF	; 239
     cc6:	88 b9       	out	0x08, r24	; 8
     cc8:	80 91 e7 04 	lds	r24, 0x04E7	; 0x8004e7 <absentCounter>
     ccc:	90 91 e8 04 	lds	r25, 0x04E8	; 0x8004e8 <absentCounter+0x1>
     cd0:	01 96       	adiw	r24, 0x01	; 1
     cd2:	90 93 e8 04 	sts	0x04E8, r25	; 0x8004e8 <absentCounter+0x1>
     cd6:	80 93 e7 04 	sts	0x04E7, r24	; 0x8004e7 <absentCounter>
     cda:	80 91 e7 04 	lds	r24, 0x04E7	; 0x8004e7 <absentCounter>
     cde:	90 91 e8 04 	lds	r25, 0x04E8	; 0x8004e8 <absentCounter+0x1>
     ce2:	06 97       	sbiw	r24, 0x06	; 6
     ce4:	38 f0       	brcs	.+14     	; 0xcf4 <__vector_4+0x70>
     ce6:	81 e0       	ldi	r24, 0x01	; 1
     ce8:	80 93 e9 04 	sts	0x04E9, r24	; 0x8004e9 <idleBool>
     cec:	10 92 e8 04 	sts	0x04E8, r1	; 0x8004e8 <absentCounter+0x1>
     cf0:	10 92 e7 04 	sts	0x04E7, r1	; 0x8004e7 <absentCounter>
     cf4:	10 92 ec 04 	sts	0x04EC, r1	; 0x8004ec <timerCounter+0x1>
     cf8:	10 92 eb 04 	sts	0x04EB, r1	; 0x8004eb <timerCounter>
     cfc:	ff 91       	pop	r31
     cfe:	ef 91       	pop	r30
     d00:	9f 91       	pop	r25
     d02:	8f 91       	pop	r24
     d04:	0f 90       	pop	r0
     d06:	0f be       	out	0x3f, r0	; 63
     d08:	0f 90       	pop	r0
     d0a:	1f 90       	pop	r1
     d0c:	18 95       	reti

00000d0e <screensaver>:

void screensaver(uint16_t counter) {
     d0e:	cf 92       	push	r12
     d10:	ef 92       	push	r14
     d12:	ff 92       	push	r15
     d14:	0f 93       	push	r16
     d16:	1f 93       	push	r17
     d18:	cf 93       	push	r28
     d1a:	df 93       	push	r29
     d1c:	cd b7       	in	r28, 0x3d	; 61
     d1e:	de b7       	in	r29, 0x3e	; 62
     d20:	63 97       	sbiw	r28, 0x13	; 19
     d22:	0f b6       	in	r0, 0x3f	; 63
     d24:	f8 94       	cli
     d26:	de bf       	out	0x3e, r29	; 62
     d28:	0f be       	out	0x3f, r0	; 63
     d2a:	cd bf       	out	0x3d, r28	; 61
     d2c:	7c 01       	movw	r14, r24
	if (counter == 1)
     d2e:	01 97       	sbiw	r24, 0x01	; 1
     d30:	99 f4       	brne	.+38     	; 0xd58 <screensaver+0x4a>
	{
		TFT_Window(0, 0, 175, 131, TFT_Landscape);
     d32:	02 e0       	ldi	r16, 0x02	; 2
     d34:	23 e8       	ldi	r18, 0x83	; 131
     d36:	4f ea       	ldi	r20, 0xAF	; 175
     d38:	60 e0       	ldi	r22, 0x00	; 0
     d3a:	80 e0       	ldi	r24, 0x00	; 0
     d3c:	0e 94 55 04 	call	0x8aa	; 0x8aa <TFT_Window>
		for(int i = 0; i < 23232; i++) {
     d40:	00 e0       	ldi	r16, 0x00	; 0
     d42:	10 e0       	ldi	r17, 0x00	; 0
     d44:	05 c0       	rjmp	.+10     	; 0xd50 <screensaver+0x42>
			SPISend8Bit(0xFF);
     d46:	8f ef       	ldi	r24, 0xFF	; 255
     d48:	0e 94 92 03 	call	0x724	; 0x724 <SPISend8Bit>

void screensaver(uint16_t counter) {
	if (counter == 1)
	{
		TFT_Window(0, 0, 175, 131, TFT_Landscape);
		for(int i = 0; i < 23232; i++) {
     d4c:	0f 5f       	subi	r16, 0xFF	; 255
     d4e:	1f 4f       	sbci	r17, 0xFF	; 255
     d50:	00 3c       	cpi	r16, 0xC0	; 192
     d52:	3a e5       	ldi	r19, 0x5A	; 90
     d54:	13 07       	cpc	r17, r19
     d56:	bc f3       	brlt	.-18     	; 0xd46 <screensaver+0x38>
			SPISend8Bit(0xFF);
		};
	}
	uint8_t colors[7] = {TFT_8BitBlack,TFT_8BitGreen, TFT_8BitCyan,TFT_8BitBlue,TFT_8BitPurple,TFT_8BitRed,TFT_8BitWhite};
     d58:	87 e0       	ldi	r24, 0x07	; 7
     d5a:	ea e5       	ldi	r30, 0x5A	; 90
     d5c:	f1 e0       	ldi	r31, 0x01	; 1
     d5e:	de 01       	movw	r26, r28
     d60:	11 96       	adiw	r26, 0x01	; 1
     d62:	01 90       	ld	r0, Z+
     d64:	0d 92       	st	X+, r0
     d66:	8a 95       	dec	r24
     d68:	e1 f7       	brne	.-8      	; 0xd62 <screensaver+0x54>
	
	char str[] = "SCREENSAVER";
     d6a:	8c e0       	ldi	r24, 0x0C	; 12
     d6c:	e0 ec       	ldi	r30, 0xC0	; 192
     d6e:	f4 e0       	ldi	r31, 0x04	; 4
     d70:	de 01       	movw	r26, r28
     d72:	18 96       	adiw	r26, 0x08	; 8
     d74:	01 90       	ld	r0, Z+
     d76:	0d 92       	st	X+, r0
     d78:	8a 95       	dec	r24
     d7a:	e1 f7       	brne	.-8      	; 0xd74 <screensaver+0x66>
	TFT_Print(str, 22, 60, 2, colors[(counter / 5)%7], TFT_8BitWhite, TFT_Landscape);
     d7c:	97 01       	movw	r18, r14
     d7e:	ad ec       	ldi	r26, 0xCD	; 205
     d80:	bc ec       	ldi	r27, 0xCC	; 204
     d82:	0e 94 91 0a 	call	0x1522	; 0x1522 <__umulhisi3>
     d86:	ac 01       	movw	r20, r24
     d88:	56 95       	lsr	r21
     d8a:	47 95       	ror	r20
     d8c:	56 95       	lsr	r21
     d8e:	47 95       	ror	r20
     d90:	9a 01       	movw	r18, r20
     d92:	a3 e9       	ldi	r26, 0x93	; 147
     d94:	b4 e2       	ldi	r27, 0x24	; 36
     d96:	0e 94 91 0a 	call	0x1522	; 0x1522 <__umulhisi3>
     d9a:	28 1b       	sub	r18, r24
     d9c:	39 0b       	sbc	r19, r25
     d9e:	36 95       	lsr	r19
     da0:	27 95       	ror	r18
     da2:	82 0f       	add	r24, r18
     da4:	93 1f       	adc	r25, r19
     da6:	96 95       	lsr	r25
     da8:	87 95       	ror	r24
     daa:	96 95       	lsr	r25
     dac:	87 95       	ror	r24
     dae:	9c 01       	movw	r18, r24
     db0:	22 0f       	add	r18, r18
     db2:	33 1f       	adc	r19, r19
     db4:	22 0f       	add	r18, r18
     db6:	33 1f       	adc	r19, r19
     db8:	22 0f       	add	r18, r18
     dba:	33 1f       	adc	r19, r19
     dbc:	b9 01       	movw	r22, r18
     dbe:	68 1b       	sub	r22, r24
     dc0:	79 0b       	sbc	r23, r25
     dc2:	9a 01       	movw	r18, r20
     dc4:	26 1b       	sub	r18, r22
     dc6:	37 0b       	sbc	r19, r23
     dc8:	e1 e0       	ldi	r30, 0x01	; 1
     dca:	f0 e0       	ldi	r31, 0x00	; 0
     dcc:	ec 0f       	add	r30, r28
     dce:	fd 1f       	adc	r31, r29
     dd0:	e2 0f       	add	r30, r18
     dd2:	f3 1f       	adc	r31, r19
     dd4:	68 94       	set
     dd6:	cc 24       	eor	r12, r12
     dd8:	c1 f8       	bld	r12, 1
     dda:	ee 24       	eor	r14, r14
     ddc:	ea 94       	dec	r14
     dde:	00 81       	ld	r16, Z
     de0:	22 e0       	ldi	r18, 0x02	; 2
     de2:	4c e3       	ldi	r20, 0x3C	; 60
     de4:	66 e1       	ldi	r22, 0x16	; 22
     de6:	ce 01       	movw	r24, r28
     de8:	08 96       	adiw	r24, 0x08	; 8
     dea:	0e 94 e6 04 	call	0x9cc	; 0x9cc <TFT_Print>
}
     dee:	63 96       	adiw	r28, 0x13	; 19
     df0:	0f b6       	in	r0, 0x3f	; 63
     df2:	f8 94       	cli
     df4:	de bf       	out	0x3e, r29	; 62
     df6:	0f be       	out	0x3f, r0	; 63
     df8:	cd bf       	out	0x3d, r28	; 61
     dfa:	df 91       	pop	r29
     dfc:	cf 91       	pop	r28
     dfe:	1f 91       	pop	r17
     e00:	0f 91       	pop	r16
     e02:	ff 90       	pop	r15
     e04:	ef 90       	pop	r14
     e06:	cf 90       	pop	r12
     e08:	08 95       	ret

00000e0a <__vector_7>:


// Timer 2 - Distance Counter
ISR(TIMER2_COMPA_vect){
     e0a:	1f 92       	push	r1
     e0c:	0f 92       	push	r0
     e0e:	0f b6       	in	r0, 0x3f	; 63
     e10:	0f 92       	push	r0
     e12:	11 24       	eor	r1, r1
     e14:	8f 93       	push	r24
     e16:	9f 93       	push	r25
	if (triggerOnBool)
     e18:	80 91 ea 04 	lds	r24, 0x04EA	; 0x8004ea <triggerOnBool>
     e1c:	88 23       	and	r24, r24
     e1e:	29 f0       	breq	.+10     	; 0xe2a <__vector_7+0x20>
	{
		//LED_ON;
		TRIGGER_OFF;
     e20:	8b b1       	in	r24, 0x0b	; 11
     e22:	8e 7f       	andi	r24, 0xFE	; 254
     e24:	8b b9       	out	0x0b, r24	; 11
		triggerOnBool = 0;
     e26:	10 92 ea 04 	sts	0x04EA, r1	; 0x8004ea <triggerOnBool>
	}
	//LED_ON;
	timerCounter++;
     e2a:	80 91 eb 04 	lds	r24, 0x04EB	; 0x8004eb <timerCounter>
     e2e:	90 91 ec 04 	lds	r25, 0x04EC	; 0x8004ec <timerCounter+0x1>
     e32:	01 96       	adiw	r24, 0x01	; 1
     e34:	90 93 ec 04 	sts	0x04EC, r25	; 0x8004ec <timerCounter+0x1>
     e38:	80 93 eb 04 	sts	0x04EB, r24	; 0x8004eb <timerCounter>
}
     e3c:	9f 91       	pop	r25
     e3e:	8f 91       	pop	r24
     e40:	0f 90       	pop	r0
     e42:	0f be       	out	0x3f, r0	; 63
     e44:	0f 90       	pop	r0
     e46:	1f 90       	pop	r1
     e48:	18 95       	reti

00000e4a <measureDistance>:
		overCounter++;
	}
}

void measureDistance() {
	triggerOnBool = 1;
     e4a:	81 e0       	ldi	r24, 0x01	; 1
     e4c:	80 93 ea 04 	sts	0x04EA, r24	; 0x8004ea <triggerOnBool>
	TCNT2 = 0;
     e50:	10 92 b2 00 	sts	0x00B2, r1	; 0x8000b2 <__TEXT_REGION_LENGTH__+0x7f80b2>
	TRIGGER_ON;
     e54:	8b b1       	in	r24, 0x0b	; 11
     e56:	81 60       	ori	r24, 0x01	; 1
     e58:	8b b9       	out	0x0b, r24	; 11
	TIMER2_ON;
     e5a:	e1 eb       	ldi	r30, 0xB1	; 177
     e5c:	f0 e0       	ldi	r31, 0x00	; 0
     e5e:	80 81       	ld	r24, Z
     e60:	82 60       	ori	r24, 0x02	; 2
     e62:	80 83       	st	Z, r24
     e64:	08 95       	ret

00000e66 <__vector_14>:
	//LED_ON;
	timerCounter++;
}

// Timer 0 - Game Loop
ISR(TIMER0_COMPA_vect){
     e66:	1f 92       	push	r1
     e68:	0f 92       	push	r0
     e6a:	0f b6       	in	r0, 0x3f	; 63
     e6c:	0f 92       	push	r0
     e6e:	11 24       	eor	r1, r1
     e70:	2f 93       	push	r18
     e72:	3f 93       	push	r19
     e74:	4f 93       	push	r20
     e76:	5f 93       	push	r21
     e78:	6f 93       	push	r22
     e7a:	7f 93       	push	r23
     e7c:	8f 93       	push	r24
     e7e:	9f 93       	push	r25
     e80:	af 93       	push	r26
     e82:	bf 93       	push	r27
     e84:	ef 93       	push	r30
     e86:	ff 93       	push	r31
		////TRIGGER_OFF;
		//counter1 = 0;
	//}
	//
	
	if (!gameOver) {
     e88:	80 91 06 01 	lds	r24, 0x0106	; 0x800106 <gameOver>
     e8c:	90 91 07 01 	lds	r25, 0x0107	; 0x800107 <gameOver+0x1>
     e90:	89 2b       	or	r24, r25
     e92:	41 f5       	brne	.+80     	; 0xee4 <__vector_14+0x7e>
		// game ticks
		if (gameCounter == (15))
     e94:	80 91 e6 04 	lds	r24, 0x04E6	; 0x8004e6 <gameCounter.1696>
     e98:	8f 30       	cpi	r24, 0x0F	; 15
     e9a:	f1 f4       	brne	.+60     	; 0xed8 <__vector_14+0x72>
		{
			// jumping
			if (jumping)
     e9c:	80 91 ef 04 	lds	r24, 0x04EF	; 0x8004ef <jumping>
     ea0:	90 91 f0 04 	lds	r25, 0x04F0	; 0x8004f0 <jumping+0x1>
     ea4:	89 2b       	or	r24, r25
     ea6:	a1 f0       	breq	.+40     	; 0xed0 <__vector_14+0x6a>
			{
				jump(jumpCounter);
     ea8:	80 91 e5 04 	lds	r24, 0x04E5	; 0x8004e5 <jumpCounter.1697>
     eac:	90 e0       	ldi	r25, 0x00	; 0
     eae:	0e 94 51 03 	call	0x6a2	; 0x6a2 <jump>
				jumpCounter++;
     eb2:	80 91 e5 04 	lds	r24, 0x04E5	; 0x8004e5 <jumpCounter.1697>
     eb6:	8f 5f       	subi	r24, 0xFF	; 255
     eb8:	80 93 e5 04 	sts	0x04E5, r24	; 0x8004e5 <jumpCounter.1697>
				if (jumpCounter == 38)
     ebc:	80 91 e5 04 	lds	r24, 0x04E5	; 0x8004e5 <jumpCounter.1697>
     ec0:	86 32       	cpi	r24, 0x26	; 38
     ec2:	31 f4       	brne	.+12     	; 0xed0 <__vector_14+0x6a>
				{
					jumping = 0;
     ec4:	10 92 f0 04 	sts	0x04F0, r1	; 0x8004f0 <jumping+0x1>
     ec8:	10 92 ef 04 	sts	0x04EF, r1	; 0x8004ef <jumping>
					jumpCounter = 0;
     ecc:	10 92 e5 04 	sts	0x04E5, r1	; 0x8004e5 <jumpCounter.1697>
				};
			};
			moveObstacles();
     ed0:	0e 94 5c 02 	call	0x4b8	; 0x4b8 <moveObstacles>
			gameCounter = 0;
     ed4:	10 92 e6 04 	sts	0x04E6, r1	; 0x8004e6 <gameCounter.1696>
		};
		gameCounter++;
     ed8:	80 91 e6 04 	lds	r24, 0x04E6	; 0x8004e6 <gameCounter.1696>
     edc:	8f 5f       	subi	r24, 0xFF	; 255
     ede:	80 93 e6 04 	sts	0x04E6, r24	; 0x8004e6 <gameCounter.1696>
     ee2:	5b c0       	rjmp	.+182    	; 0xf9a <__vector_14+0x134>
	} else {
		if (overCounter == 255)
     ee4:	80 91 e4 04 	lds	r24, 0x04E4	; 0x8004e4 <overCounter.1698>
     ee8:	8f 3f       	cpi	r24, 0xFF	; 255
     eea:	09 f0       	breq	.+2      	; 0xeee <__vector_14+0x88>
     eec:	51 c0       	rjmp	.+162    	; 0xf90 <__vector_14+0x12a>
		{
			BUZZER_OFF;
     eee:	88 b1       	in	r24, 0x08	; 8
     ef0:	8d 7f       	andi	r24, 0xFD	; 253
     ef2:	88 b9       	out	0x08, r24	; 8
			if (measureCounter == 8)
     ef4:	80 91 e3 04 	lds	r24, 0x04E3	; 0x8004e3 <measureCounter.1699>
     ef8:	88 30       	cpi	r24, 0x08	; 8
     efa:	21 f4       	brne	.+8      	; 0xf04 <__vector_14+0x9e>
			{
				measureDistance();	
     efc:	0e 94 25 07 	call	0xe4a	; 0xe4a <measureDistance>
				measureCounter = 0;
     f00:	10 92 e3 04 	sts	0x04E3, r1	; 0x8004e3 <measureCounter.1699>
			}
			measureCounter++;
     f04:	80 91 e3 04 	lds	r24, 0x04E3	; 0x8004e3 <measureCounter.1699>
     f08:	8f 5f       	subi	r24, 0xFF	; 255
     f0a:	80 93 e3 04 	sts	0x04E3, r24	; 0x8004e3 <measureCounter.1699>
			
			if (idleBool)
     f0e:	80 91 e9 04 	lds	r24, 0x04E9	; 0x8004e9 <idleBool>
     f12:	88 23       	and	r24, r24
     f14:	91 f0       	breq	.+36     	; 0xf3a <__vector_14+0xd4>
			{
				initBool = 0;
     f16:	10 92 e2 04 	sts	0x04E2, r1	; 0x8004e2 <initBool.1701>
				idleCounter++;
     f1a:	80 91 e0 04 	lds	r24, 0x04E0	; 0x8004e0 <idleCounter.1700>
     f1e:	90 91 e1 04 	lds	r25, 0x04E1	; 0x8004e1 <idleCounter.1700+0x1>
     f22:	01 96       	adiw	r24, 0x01	; 1
     f24:	90 93 e1 04 	sts	0x04E1, r25	; 0x8004e1 <idleCounter.1700+0x1>
     f28:	80 93 e0 04 	sts	0x04E0, r24	; 0x8004e0 <idleCounter.1700>
				screensaver(idleCounter);
     f2c:	80 91 e0 04 	lds	r24, 0x04E0	; 0x8004e0 <idleCounter.1700>
     f30:	90 91 e1 04 	lds	r25, 0x04E1	; 0x8004e1 <idleCounter.1700+0x1>
     f34:	0e 94 87 06 	call	0xd0e	; 0xd0e <screensaver>
     f38:	12 c0       	rjmp	.+36     	; 0xf5e <__vector_14+0xf8>
			} else if (!initBool) {
     f3a:	80 91 e2 04 	lds	r24, 0x04E2	; 0x8004e2 <initBool.1701>
     f3e:	81 11       	cpse	r24, r1
     f40:	0a c0       	rjmp	.+20     	; 0xf56 <__vector_14+0xf0>
				InitGame();
     f42:	0e 94 19 01 	call	0x232	; 0x232 <InitGame>
				initBool = 1;
     f46:	81 e0       	ldi	r24, 0x01	; 1
     f48:	80 93 e2 04 	sts	0x04E2, r24	; 0x8004e2 <initBool.1701>
				idleCounter = 0;
     f4c:	10 92 e1 04 	sts	0x04E1, r1	; 0x8004e1 <idleCounter.1700+0x1>
     f50:	10 92 e0 04 	sts	0x04E0, r1	; 0x8004e0 <idleCounter.1700>
     f54:	04 c0       	rjmp	.+8      	; 0xf5e <__vector_14+0xf8>
			} else {
				idleCounter = 0;
     f56:	10 92 e1 04 	sts	0x04E1, r1	; 0x8004e1 <idleCounter.1700+0x1>
     f5a:	10 92 e0 04 	sts	0x04E0, r1	; 0x8004e0 <idleCounter.1700>
			}
			
			if (BUTTON_1_PRESS)
     f5e:	49 99       	sbic	0x09, 1	; 9
     f60:	17 c0       	rjmp	.+46     	; 0xf90 <__vector_14+0x12a>
			{
				idleBool = 0;
     f62:	10 92 e9 04 	sts	0x04E9, r1	; 0x8004e9 <idleBool>
				absentCounter = 0;
     f66:	10 92 e8 04 	sts	0x04E8, r1	; 0x8004e8 <absentCounter+0x1>
     f6a:	10 92 e7 04 	sts	0x04E7, r1	; 0x8004e7 <absentCounter>
				idleCounter = 0;
     f6e:	10 92 e1 04 	sts	0x04E1, r1	; 0x8004e1 <idleCounter.1700+0x1>
     f72:	10 92 e0 04 	sts	0x04E0, r1	; 0x8004e0 <idleCounter.1700>
				jumpCounter = 0;
     f76:	10 92 e5 04 	sts	0x04E5, r1	; 0x8004e5 <jumpCounter.1697>
				overCounter = 0;
     f7a:	10 92 e4 04 	sts	0x04E4, r1	; 0x8004e4 <overCounter.1698>
				measureCounter = 0;
     f7e:	10 92 e3 04 	sts	0x04E3, r1	; 0x8004e3 <measureCounter.1699>
				startGame();
     f82:	0e 94 af 01 	call	0x35e	; 0x35e <startGame>
				TIMER2_OFF;
     f86:	e1 eb       	ldi	r30, 0xB1	; 177
     f88:	f0 e0       	ldi	r31, 0x00	; 0
     f8a:	80 81       	ld	r24, Z
     f8c:	8d 7f       	andi	r24, 0xFD	; 253
     f8e:	80 83       	st	Z, r24
			}
		} 
		overCounter++;
     f90:	80 91 e4 04 	lds	r24, 0x04E4	; 0x8004e4 <overCounter.1698>
     f94:	8f 5f       	subi	r24, 0xFF	; 255
     f96:	80 93 e4 04 	sts	0x04E4, r24	; 0x8004e4 <overCounter.1698>
	}
}
     f9a:	ff 91       	pop	r31
     f9c:	ef 91       	pop	r30
     f9e:	bf 91       	pop	r27
     fa0:	af 91       	pop	r26
     fa2:	9f 91       	pop	r25
     fa4:	8f 91       	pop	r24
     fa6:	7f 91       	pop	r23
     fa8:	6f 91       	pop	r22
     faa:	5f 91       	pop	r21
     fac:	4f 91       	pop	r20
     fae:	3f 91       	pop	r19
     fb0:	2f 91       	pop	r18
     fb2:	0f 90       	pop	r0
     fb4:	0f be       	out	0x3f, r0	; 63
     fb6:	0f 90       	pop	r0
     fb8:	1f 90       	pop	r1
     fba:	18 95       	reti
     fbc:	0e 94 32 09 	call	0x1264	; 0x1264 <__fp_pscA>
     fc0:	38 f0       	brcs	.+14     	; 0xfd0 <__vector_14+0x16a>
     fc2:	0e 94 39 09 	call	0x1272	; 0x1272 <__fp_pscB>
     fc6:	20 f0       	brcs	.+8      	; 0xfd0 <__vector_14+0x16a>
     fc8:	39 f4       	brne	.+14     	; 0xfd8 <__vector_14+0x172>
     fca:	9f 3f       	cpi	r25, 0xFF	; 255
     fcc:	19 f4       	brne	.+6      	; 0xfd4 <__vector_14+0x16e>
     fce:	26 f4       	brtc	.+8      	; 0xfd8 <__vector_14+0x172>
     fd0:	0c 94 2f 09 	jmp	0x125e	; 0x125e <__fp_nan>
     fd4:	0e f4       	brtc	.+2      	; 0xfd8 <__vector_14+0x172>
     fd6:	e0 95       	com	r30
     fd8:	e7 fb       	bst	r30, 7
     fda:	0c 94 29 09 	jmp	0x1252	; 0x1252 <__fp_inf>

00000fde <__addsf3x>:
     fde:	e9 2f       	mov	r30, r25
     fe0:	0e 94 51 09 	call	0x12a2	; 0x12a2 <__fp_split3>
     fe4:	58 f3       	brcs	.-42     	; 0xfbc <__vector_14+0x156>
     fe6:	ba 17       	cp	r27, r26
     fe8:	62 07       	cpc	r22, r18
     fea:	73 07       	cpc	r23, r19
     fec:	84 07       	cpc	r24, r20
     fee:	95 07       	cpc	r25, r21
     ff0:	20 f0       	brcs	.+8      	; 0xffa <__addsf3x+0x1c>
     ff2:	79 f4       	brne	.+30     	; 0x1012 <__addsf3x+0x34>
     ff4:	a6 f5       	brtc	.+104    	; 0x105e <__addsf3x+0x80>
     ff6:	0c 94 73 09 	jmp	0x12e6	; 0x12e6 <__fp_zero>
     ffa:	0e f4       	brtc	.+2      	; 0xffe <__addsf3x+0x20>
     ffc:	e0 95       	com	r30
     ffe:	0b 2e       	mov	r0, r27
    1000:	ba 2f       	mov	r27, r26
    1002:	a0 2d       	mov	r26, r0
    1004:	0b 01       	movw	r0, r22
    1006:	b9 01       	movw	r22, r18
    1008:	90 01       	movw	r18, r0
    100a:	0c 01       	movw	r0, r24
    100c:	ca 01       	movw	r24, r20
    100e:	a0 01       	movw	r20, r0
    1010:	11 24       	eor	r1, r1
    1012:	ff 27       	eor	r31, r31
    1014:	59 1b       	sub	r21, r25
    1016:	99 f0       	breq	.+38     	; 0x103e <__addsf3x+0x60>
    1018:	59 3f       	cpi	r21, 0xF9	; 249
    101a:	50 f4       	brcc	.+20     	; 0x1030 <__addsf3x+0x52>
    101c:	50 3e       	cpi	r21, 0xE0	; 224
    101e:	68 f1       	brcs	.+90     	; 0x107a <__addsf3x+0x9c>
    1020:	1a 16       	cp	r1, r26
    1022:	f0 40       	sbci	r31, 0x00	; 0
    1024:	a2 2f       	mov	r26, r18
    1026:	23 2f       	mov	r18, r19
    1028:	34 2f       	mov	r19, r20
    102a:	44 27       	eor	r20, r20
    102c:	58 5f       	subi	r21, 0xF8	; 248
    102e:	f3 cf       	rjmp	.-26     	; 0x1016 <__addsf3x+0x38>
    1030:	46 95       	lsr	r20
    1032:	37 95       	ror	r19
    1034:	27 95       	ror	r18
    1036:	a7 95       	ror	r26
    1038:	f0 40       	sbci	r31, 0x00	; 0
    103a:	53 95       	inc	r21
    103c:	c9 f7       	brne	.-14     	; 0x1030 <__addsf3x+0x52>
    103e:	7e f4       	brtc	.+30     	; 0x105e <__addsf3x+0x80>
    1040:	1f 16       	cp	r1, r31
    1042:	ba 0b       	sbc	r27, r26
    1044:	62 0b       	sbc	r22, r18
    1046:	73 0b       	sbc	r23, r19
    1048:	84 0b       	sbc	r24, r20
    104a:	ba f0       	brmi	.+46     	; 0x107a <__addsf3x+0x9c>
    104c:	91 50       	subi	r25, 0x01	; 1
    104e:	a1 f0       	breq	.+40     	; 0x1078 <__addsf3x+0x9a>
    1050:	ff 0f       	add	r31, r31
    1052:	bb 1f       	adc	r27, r27
    1054:	66 1f       	adc	r22, r22
    1056:	77 1f       	adc	r23, r23
    1058:	88 1f       	adc	r24, r24
    105a:	c2 f7       	brpl	.-16     	; 0x104c <__addsf3x+0x6e>
    105c:	0e c0       	rjmp	.+28     	; 0x107a <__addsf3x+0x9c>
    105e:	ba 0f       	add	r27, r26
    1060:	62 1f       	adc	r22, r18
    1062:	73 1f       	adc	r23, r19
    1064:	84 1f       	adc	r24, r20
    1066:	48 f4       	brcc	.+18     	; 0x107a <__addsf3x+0x9c>
    1068:	87 95       	ror	r24
    106a:	77 95       	ror	r23
    106c:	67 95       	ror	r22
    106e:	b7 95       	ror	r27
    1070:	f7 95       	ror	r31
    1072:	9e 3f       	cpi	r25, 0xFE	; 254
    1074:	08 f0       	brcs	.+2      	; 0x1078 <__addsf3x+0x9a>
    1076:	b0 cf       	rjmp	.-160    	; 0xfd8 <__vector_14+0x172>
    1078:	93 95       	inc	r25
    107a:	88 0f       	add	r24, r24
    107c:	08 f0       	brcs	.+2      	; 0x1080 <__addsf3x+0xa2>
    107e:	99 27       	eor	r25, r25
    1080:	ee 0f       	add	r30, r30
    1082:	97 95       	ror	r25
    1084:	87 95       	ror	r24
    1086:	08 95       	ret

00001088 <__divsf3>:
    1088:	0e 94 58 08 	call	0x10b0	; 0x10b0 <__divsf3x>
    108c:	0c 94 40 09 	jmp	0x1280	; 0x1280 <__fp_round>
    1090:	0e 94 39 09 	call	0x1272	; 0x1272 <__fp_pscB>
    1094:	58 f0       	brcs	.+22     	; 0x10ac <__divsf3+0x24>
    1096:	0e 94 32 09 	call	0x1264	; 0x1264 <__fp_pscA>
    109a:	40 f0       	brcs	.+16     	; 0x10ac <__divsf3+0x24>
    109c:	29 f4       	brne	.+10     	; 0x10a8 <__divsf3+0x20>
    109e:	5f 3f       	cpi	r21, 0xFF	; 255
    10a0:	29 f0       	breq	.+10     	; 0x10ac <__divsf3+0x24>
    10a2:	0c 94 29 09 	jmp	0x1252	; 0x1252 <__fp_inf>
    10a6:	51 11       	cpse	r21, r1
    10a8:	0c 94 74 09 	jmp	0x12e8	; 0x12e8 <__fp_szero>
    10ac:	0c 94 2f 09 	jmp	0x125e	; 0x125e <__fp_nan>

000010b0 <__divsf3x>:
    10b0:	0e 94 51 09 	call	0x12a2	; 0x12a2 <__fp_split3>
    10b4:	68 f3       	brcs	.-38     	; 0x1090 <__divsf3+0x8>

000010b6 <__divsf3_pse>:
    10b6:	99 23       	and	r25, r25
    10b8:	b1 f3       	breq	.-20     	; 0x10a6 <__divsf3+0x1e>
    10ba:	55 23       	and	r21, r21
    10bc:	91 f3       	breq	.-28     	; 0x10a2 <__divsf3+0x1a>
    10be:	95 1b       	sub	r25, r21
    10c0:	55 0b       	sbc	r21, r21
    10c2:	bb 27       	eor	r27, r27
    10c4:	aa 27       	eor	r26, r26
    10c6:	62 17       	cp	r22, r18
    10c8:	73 07       	cpc	r23, r19
    10ca:	84 07       	cpc	r24, r20
    10cc:	38 f0       	brcs	.+14     	; 0x10dc <__divsf3_pse+0x26>
    10ce:	9f 5f       	subi	r25, 0xFF	; 255
    10d0:	5f 4f       	sbci	r21, 0xFF	; 255
    10d2:	22 0f       	add	r18, r18
    10d4:	33 1f       	adc	r19, r19
    10d6:	44 1f       	adc	r20, r20
    10d8:	aa 1f       	adc	r26, r26
    10da:	a9 f3       	breq	.-22     	; 0x10c6 <__divsf3_pse+0x10>
    10dc:	35 d0       	rcall	.+106    	; 0x1148 <__divsf3_pse+0x92>
    10de:	0e 2e       	mov	r0, r30
    10e0:	3a f0       	brmi	.+14     	; 0x10f0 <__divsf3_pse+0x3a>
    10e2:	e0 e8       	ldi	r30, 0x80	; 128
    10e4:	32 d0       	rcall	.+100    	; 0x114a <__divsf3_pse+0x94>
    10e6:	91 50       	subi	r25, 0x01	; 1
    10e8:	50 40       	sbci	r21, 0x00	; 0
    10ea:	e6 95       	lsr	r30
    10ec:	00 1c       	adc	r0, r0
    10ee:	ca f7       	brpl	.-14     	; 0x10e2 <__divsf3_pse+0x2c>
    10f0:	2b d0       	rcall	.+86     	; 0x1148 <__divsf3_pse+0x92>
    10f2:	fe 2f       	mov	r31, r30
    10f4:	29 d0       	rcall	.+82     	; 0x1148 <__divsf3_pse+0x92>
    10f6:	66 0f       	add	r22, r22
    10f8:	77 1f       	adc	r23, r23
    10fa:	88 1f       	adc	r24, r24
    10fc:	bb 1f       	adc	r27, r27
    10fe:	26 17       	cp	r18, r22
    1100:	37 07       	cpc	r19, r23
    1102:	48 07       	cpc	r20, r24
    1104:	ab 07       	cpc	r26, r27
    1106:	b0 e8       	ldi	r27, 0x80	; 128
    1108:	09 f0       	breq	.+2      	; 0x110c <__divsf3_pse+0x56>
    110a:	bb 0b       	sbc	r27, r27
    110c:	80 2d       	mov	r24, r0
    110e:	bf 01       	movw	r22, r30
    1110:	ff 27       	eor	r31, r31
    1112:	93 58       	subi	r25, 0x83	; 131
    1114:	5f 4f       	sbci	r21, 0xFF	; 255
    1116:	3a f0       	brmi	.+14     	; 0x1126 <__divsf3_pse+0x70>
    1118:	9e 3f       	cpi	r25, 0xFE	; 254
    111a:	51 05       	cpc	r21, r1
    111c:	78 f0       	brcs	.+30     	; 0x113c <__divsf3_pse+0x86>
    111e:	0c 94 29 09 	jmp	0x1252	; 0x1252 <__fp_inf>
    1122:	0c 94 74 09 	jmp	0x12e8	; 0x12e8 <__fp_szero>
    1126:	5f 3f       	cpi	r21, 0xFF	; 255
    1128:	e4 f3       	brlt	.-8      	; 0x1122 <__divsf3_pse+0x6c>
    112a:	98 3e       	cpi	r25, 0xE8	; 232
    112c:	d4 f3       	brlt	.-12     	; 0x1122 <__divsf3_pse+0x6c>
    112e:	86 95       	lsr	r24
    1130:	77 95       	ror	r23
    1132:	67 95       	ror	r22
    1134:	b7 95       	ror	r27
    1136:	f7 95       	ror	r31
    1138:	9f 5f       	subi	r25, 0xFF	; 255
    113a:	c9 f7       	brne	.-14     	; 0x112e <__divsf3_pse+0x78>
    113c:	88 0f       	add	r24, r24
    113e:	91 1d       	adc	r25, r1
    1140:	96 95       	lsr	r25
    1142:	87 95       	ror	r24
    1144:	97 f9       	bld	r25, 7
    1146:	08 95       	ret
    1148:	e1 e0       	ldi	r30, 0x01	; 1
    114a:	66 0f       	add	r22, r22
    114c:	77 1f       	adc	r23, r23
    114e:	88 1f       	adc	r24, r24
    1150:	bb 1f       	adc	r27, r27
    1152:	62 17       	cp	r22, r18
    1154:	73 07       	cpc	r23, r19
    1156:	84 07       	cpc	r24, r20
    1158:	ba 07       	cpc	r27, r26
    115a:	20 f0       	brcs	.+8      	; 0x1164 <__divsf3_pse+0xae>
    115c:	62 1b       	sub	r22, r18
    115e:	73 0b       	sbc	r23, r19
    1160:	84 0b       	sbc	r24, r20
    1162:	ba 0b       	sbc	r27, r26
    1164:	ee 1f       	adc	r30, r30
    1166:	88 f7       	brcc	.-30     	; 0x114a <__divsf3_pse+0x94>
    1168:	e0 95       	com	r30
    116a:	08 95       	ret

0000116c <__fixsfsi>:
    116c:	0e 94 bd 08 	call	0x117a	; 0x117a <__fixunssfsi>
    1170:	68 94       	set
    1172:	b1 11       	cpse	r27, r1
    1174:	0c 94 74 09 	jmp	0x12e8	; 0x12e8 <__fp_szero>
    1178:	08 95       	ret

0000117a <__fixunssfsi>:
    117a:	0e 94 59 09 	call	0x12b2	; 0x12b2 <__fp_splitA>
    117e:	88 f0       	brcs	.+34     	; 0x11a2 <__fixunssfsi+0x28>
    1180:	9f 57       	subi	r25, 0x7F	; 127
    1182:	98 f0       	brcs	.+38     	; 0x11aa <__fixunssfsi+0x30>
    1184:	b9 2f       	mov	r27, r25
    1186:	99 27       	eor	r25, r25
    1188:	b7 51       	subi	r27, 0x17	; 23
    118a:	b0 f0       	brcs	.+44     	; 0x11b8 <__fixunssfsi+0x3e>
    118c:	e1 f0       	breq	.+56     	; 0x11c6 <__fixunssfsi+0x4c>
    118e:	66 0f       	add	r22, r22
    1190:	77 1f       	adc	r23, r23
    1192:	88 1f       	adc	r24, r24
    1194:	99 1f       	adc	r25, r25
    1196:	1a f0       	brmi	.+6      	; 0x119e <__fixunssfsi+0x24>
    1198:	ba 95       	dec	r27
    119a:	c9 f7       	brne	.-14     	; 0x118e <__fixunssfsi+0x14>
    119c:	14 c0       	rjmp	.+40     	; 0x11c6 <__fixunssfsi+0x4c>
    119e:	b1 30       	cpi	r27, 0x01	; 1
    11a0:	91 f0       	breq	.+36     	; 0x11c6 <__fixunssfsi+0x4c>
    11a2:	0e 94 73 09 	call	0x12e6	; 0x12e6 <__fp_zero>
    11a6:	b1 e0       	ldi	r27, 0x01	; 1
    11a8:	08 95       	ret
    11aa:	0c 94 73 09 	jmp	0x12e6	; 0x12e6 <__fp_zero>
    11ae:	67 2f       	mov	r22, r23
    11b0:	78 2f       	mov	r23, r24
    11b2:	88 27       	eor	r24, r24
    11b4:	b8 5f       	subi	r27, 0xF8	; 248
    11b6:	39 f0       	breq	.+14     	; 0x11c6 <__fixunssfsi+0x4c>
    11b8:	b9 3f       	cpi	r27, 0xF9	; 249
    11ba:	cc f3       	brlt	.-14     	; 0x11ae <__fixunssfsi+0x34>
    11bc:	86 95       	lsr	r24
    11be:	77 95       	ror	r23
    11c0:	67 95       	ror	r22
    11c2:	b3 95       	inc	r27
    11c4:	d9 f7       	brne	.-10     	; 0x11bc <__fixunssfsi+0x42>
    11c6:	3e f4       	brtc	.+14     	; 0x11d6 <__fixunssfsi+0x5c>
    11c8:	90 95       	com	r25
    11ca:	80 95       	com	r24
    11cc:	70 95       	com	r23
    11ce:	61 95       	neg	r22
    11d0:	7f 4f       	sbci	r23, 0xFF	; 255
    11d2:	8f 4f       	sbci	r24, 0xFF	; 255
    11d4:	9f 4f       	sbci	r25, 0xFF	; 255
    11d6:	08 95       	ret

000011d8 <__floatunsisf>:
    11d8:	e8 94       	clt
    11da:	09 c0       	rjmp	.+18     	; 0x11ee <__floatsisf+0x12>

000011dc <__floatsisf>:
    11dc:	97 fb       	bst	r25, 7
    11de:	3e f4       	brtc	.+14     	; 0x11ee <__floatsisf+0x12>
    11e0:	90 95       	com	r25
    11e2:	80 95       	com	r24
    11e4:	70 95       	com	r23
    11e6:	61 95       	neg	r22
    11e8:	7f 4f       	sbci	r23, 0xFF	; 255
    11ea:	8f 4f       	sbci	r24, 0xFF	; 255
    11ec:	9f 4f       	sbci	r25, 0xFF	; 255
    11ee:	99 23       	and	r25, r25
    11f0:	a9 f0       	breq	.+42     	; 0x121c <__floatsisf+0x40>
    11f2:	f9 2f       	mov	r31, r25
    11f4:	96 e9       	ldi	r25, 0x96	; 150
    11f6:	bb 27       	eor	r27, r27
    11f8:	93 95       	inc	r25
    11fa:	f6 95       	lsr	r31
    11fc:	87 95       	ror	r24
    11fe:	77 95       	ror	r23
    1200:	67 95       	ror	r22
    1202:	b7 95       	ror	r27
    1204:	f1 11       	cpse	r31, r1
    1206:	f8 cf       	rjmp	.-16     	; 0x11f8 <__floatsisf+0x1c>
    1208:	fa f4       	brpl	.+62     	; 0x1248 <__floatsisf+0x6c>
    120a:	bb 0f       	add	r27, r27
    120c:	11 f4       	brne	.+4      	; 0x1212 <__floatsisf+0x36>
    120e:	60 ff       	sbrs	r22, 0
    1210:	1b c0       	rjmp	.+54     	; 0x1248 <__floatsisf+0x6c>
    1212:	6f 5f       	subi	r22, 0xFF	; 255
    1214:	7f 4f       	sbci	r23, 0xFF	; 255
    1216:	8f 4f       	sbci	r24, 0xFF	; 255
    1218:	9f 4f       	sbci	r25, 0xFF	; 255
    121a:	16 c0       	rjmp	.+44     	; 0x1248 <__floatsisf+0x6c>
    121c:	88 23       	and	r24, r24
    121e:	11 f0       	breq	.+4      	; 0x1224 <__floatsisf+0x48>
    1220:	96 e9       	ldi	r25, 0x96	; 150
    1222:	11 c0       	rjmp	.+34     	; 0x1246 <__floatsisf+0x6a>
    1224:	77 23       	and	r23, r23
    1226:	21 f0       	breq	.+8      	; 0x1230 <__floatsisf+0x54>
    1228:	9e e8       	ldi	r25, 0x8E	; 142
    122a:	87 2f       	mov	r24, r23
    122c:	76 2f       	mov	r23, r22
    122e:	05 c0       	rjmp	.+10     	; 0x123a <__floatsisf+0x5e>
    1230:	66 23       	and	r22, r22
    1232:	71 f0       	breq	.+28     	; 0x1250 <__floatsisf+0x74>
    1234:	96 e8       	ldi	r25, 0x86	; 134
    1236:	86 2f       	mov	r24, r22
    1238:	70 e0       	ldi	r23, 0x00	; 0
    123a:	60 e0       	ldi	r22, 0x00	; 0
    123c:	2a f0       	brmi	.+10     	; 0x1248 <__floatsisf+0x6c>
    123e:	9a 95       	dec	r25
    1240:	66 0f       	add	r22, r22
    1242:	77 1f       	adc	r23, r23
    1244:	88 1f       	adc	r24, r24
    1246:	da f7       	brpl	.-10     	; 0x123e <__floatsisf+0x62>
    1248:	88 0f       	add	r24, r24
    124a:	96 95       	lsr	r25
    124c:	87 95       	ror	r24
    124e:	97 f9       	bld	r25, 7
    1250:	08 95       	ret

00001252 <__fp_inf>:
    1252:	97 f9       	bld	r25, 7
    1254:	9f 67       	ori	r25, 0x7F	; 127
    1256:	80 e8       	ldi	r24, 0x80	; 128
    1258:	70 e0       	ldi	r23, 0x00	; 0
    125a:	60 e0       	ldi	r22, 0x00	; 0
    125c:	08 95       	ret

0000125e <__fp_nan>:
    125e:	9f ef       	ldi	r25, 0xFF	; 255
    1260:	80 ec       	ldi	r24, 0xC0	; 192
    1262:	08 95       	ret

00001264 <__fp_pscA>:
    1264:	00 24       	eor	r0, r0
    1266:	0a 94       	dec	r0
    1268:	16 16       	cp	r1, r22
    126a:	17 06       	cpc	r1, r23
    126c:	18 06       	cpc	r1, r24
    126e:	09 06       	cpc	r0, r25
    1270:	08 95       	ret

00001272 <__fp_pscB>:
    1272:	00 24       	eor	r0, r0
    1274:	0a 94       	dec	r0
    1276:	12 16       	cp	r1, r18
    1278:	13 06       	cpc	r1, r19
    127a:	14 06       	cpc	r1, r20
    127c:	05 06       	cpc	r0, r21
    127e:	08 95       	ret

00001280 <__fp_round>:
    1280:	09 2e       	mov	r0, r25
    1282:	03 94       	inc	r0
    1284:	00 0c       	add	r0, r0
    1286:	11 f4       	brne	.+4      	; 0x128c <__fp_round+0xc>
    1288:	88 23       	and	r24, r24
    128a:	52 f0       	brmi	.+20     	; 0x12a0 <__fp_round+0x20>
    128c:	bb 0f       	add	r27, r27
    128e:	40 f4       	brcc	.+16     	; 0x12a0 <__fp_round+0x20>
    1290:	bf 2b       	or	r27, r31
    1292:	11 f4       	brne	.+4      	; 0x1298 <__fp_round+0x18>
    1294:	60 ff       	sbrs	r22, 0
    1296:	04 c0       	rjmp	.+8      	; 0x12a0 <__fp_round+0x20>
    1298:	6f 5f       	subi	r22, 0xFF	; 255
    129a:	7f 4f       	sbci	r23, 0xFF	; 255
    129c:	8f 4f       	sbci	r24, 0xFF	; 255
    129e:	9f 4f       	sbci	r25, 0xFF	; 255
    12a0:	08 95       	ret

000012a2 <__fp_split3>:
    12a2:	57 fd       	sbrc	r21, 7
    12a4:	90 58       	subi	r25, 0x80	; 128
    12a6:	44 0f       	add	r20, r20
    12a8:	55 1f       	adc	r21, r21
    12aa:	59 f0       	breq	.+22     	; 0x12c2 <__fp_splitA+0x10>
    12ac:	5f 3f       	cpi	r21, 0xFF	; 255
    12ae:	71 f0       	breq	.+28     	; 0x12cc <__fp_splitA+0x1a>
    12b0:	47 95       	ror	r20

000012b2 <__fp_splitA>:
    12b2:	88 0f       	add	r24, r24
    12b4:	97 fb       	bst	r25, 7
    12b6:	99 1f       	adc	r25, r25
    12b8:	61 f0       	breq	.+24     	; 0x12d2 <__fp_splitA+0x20>
    12ba:	9f 3f       	cpi	r25, 0xFF	; 255
    12bc:	79 f0       	breq	.+30     	; 0x12dc <__fp_splitA+0x2a>
    12be:	87 95       	ror	r24
    12c0:	08 95       	ret
    12c2:	12 16       	cp	r1, r18
    12c4:	13 06       	cpc	r1, r19
    12c6:	14 06       	cpc	r1, r20
    12c8:	55 1f       	adc	r21, r21
    12ca:	f2 cf       	rjmp	.-28     	; 0x12b0 <__fp_split3+0xe>
    12cc:	46 95       	lsr	r20
    12ce:	f1 df       	rcall	.-30     	; 0x12b2 <__fp_splitA>
    12d0:	08 c0       	rjmp	.+16     	; 0x12e2 <__fp_splitA+0x30>
    12d2:	16 16       	cp	r1, r22
    12d4:	17 06       	cpc	r1, r23
    12d6:	18 06       	cpc	r1, r24
    12d8:	99 1f       	adc	r25, r25
    12da:	f1 cf       	rjmp	.-30     	; 0x12be <__fp_splitA+0xc>
    12dc:	86 95       	lsr	r24
    12de:	71 05       	cpc	r23, r1
    12e0:	61 05       	cpc	r22, r1
    12e2:	08 94       	sec
    12e4:	08 95       	ret

000012e6 <__fp_zero>:
    12e6:	e8 94       	clt

000012e8 <__fp_szero>:
    12e8:	bb 27       	eor	r27, r27
    12ea:	66 27       	eor	r22, r22
    12ec:	77 27       	eor	r23, r23
    12ee:	cb 01       	movw	r24, r22
    12f0:	97 f9       	bld	r25, 7
    12f2:	08 95       	ret

000012f4 <__mulsf3>:
    12f4:	0e 94 8d 09 	call	0x131a	; 0x131a <__mulsf3x>
    12f8:	0c 94 40 09 	jmp	0x1280	; 0x1280 <__fp_round>
    12fc:	0e 94 32 09 	call	0x1264	; 0x1264 <__fp_pscA>
    1300:	38 f0       	brcs	.+14     	; 0x1310 <__mulsf3+0x1c>
    1302:	0e 94 39 09 	call	0x1272	; 0x1272 <__fp_pscB>
    1306:	20 f0       	brcs	.+8      	; 0x1310 <__mulsf3+0x1c>
    1308:	95 23       	and	r25, r21
    130a:	11 f0       	breq	.+4      	; 0x1310 <__mulsf3+0x1c>
    130c:	0c 94 29 09 	jmp	0x1252	; 0x1252 <__fp_inf>
    1310:	0c 94 2f 09 	jmp	0x125e	; 0x125e <__fp_nan>
    1314:	11 24       	eor	r1, r1
    1316:	0c 94 74 09 	jmp	0x12e8	; 0x12e8 <__fp_szero>

0000131a <__mulsf3x>:
    131a:	0e 94 51 09 	call	0x12a2	; 0x12a2 <__fp_split3>
    131e:	70 f3       	brcs	.-36     	; 0x12fc <__mulsf3+0x8>

00001320 <__mulsf3_pse>:
    1320:	95 9f       	mul	r25, r21
    1322:	c1 f3       	breq	.-16     	; 0x1314 <__mulsf3+0x20>
    1324:	95 0f       	add	r25, r21
    1326:	50 e0       	ldi	r21, 0x00	; 0
    1328:	55 1f       	adc	r21, r21
    132a:	62 9f       	mul	r22, r18
    132c:	f0 01       	movw	r30, r0
    132e:	72 9f       	mul	r23, r18
    1330:	bb 27       	eor	r27, r27
    1332:	f0 0d       	add	r31, r0
    1334:	b1 1d       	adc	r27, r1
    1336:	63 9f       	mul	r22, r19
    1338:	aa 27       	eor	r26, r26
    133a:	f0 0d       	add	r31, r0
    133c:	b1 1d       	adc	r27, r1
    133e:	aa 1f       	adc	r26, r26
    1340:	64 9f       	mul	r22, r20
    1342:	66 27       	eor	r22, r22
    1344:	b0 0d       	add	r27, r0
    1346:	a1 1d       	adc	r26, r1
    1348:	66 1f       	adc	r22, r22
    134a:	82 9f       	mul	r24, r18
    134c:	22 27       	eor	r18, r18
    134e:	b0 0d       	add	r27, r0
    1350:	a1 1d       	adc	r26, r1
    1352:	62 1f       	adc	r22, r18
    1354:	73 9f       	mul	r23, r19
    1356:	b0 0d       	add	r27, r0
    1358:	a1 1d       	adc	r26, r1
    135a:	62 1f       	adc	r22, r18
    135c:	83 9f       	mul	r24, r19
    135e:	a0 0d       	add	r26, r0
    1360:	61 1d       	adc	r22, r1
    1362:	22 1f       	adc	r18, r18
    1364:	74 9f       	mul	r23, r20
    1366:	33 27       	eor	r19, r19
    1368:	a0 0d       	add	r26, r0
    136a:	61 1d       	adc	r22, r1
    136c:	23 1f       	adc	r18, r19
    136e:	84 9f       	mul	r24, r20
    1370:	60 0d       	add	r22, r0
    1372:	21 1d       	adc	r18, r1
    1374:	82 2f       	mov	r24, r18
    1376:	76 2f       	mov	r23, r22
    1378:	6a 2f       	mov	r22, r26
    137a:	11 24       	eor	r1, r1
    137c:	9f 57       	subi	r25, 0x7F	; 127
    137e:	50 40       	sbci	r21, 0x00	; 0
    1380:	9a f0       	brmi	.+38     	; 0x13a8 <__mulsf3_pse+0x88>
    1382:	f1 f0       	breq	.+60     	; 0x13c0 <__mulsf3_pse+0xa0>
    1384:	88 23       	and	r24, r24
    1386:	4a f0       	brmi	.+18     	; 0x139a <__mulsf3_pse+0x7a>
    1388:	ee 0f       	add	r30, r30
    138a:	ff 1f       	adc	r31, r31
    138c:	bb 1f       	adc	r27, r27
    138e:	66 1f       	adc	r22, r22
    1390:	77 1f       	adc	r23, r23
    1392:	88 1f       	adc	r24, r24
    1394:	91 50       	subi	r25, 0x01	; 1
    1396:	50 40       	sbci	r21, 0x00	; 0
    1398:	a9 f7       	brne	.-22     	; 0x1384 <__mulsf3_pse+0x64>
    139a:	9e 3f       	cpi	r25, 0xFE	; 254
    139c:	51 05       	cpc	r21, r1
    139e:	80 f0       	brcs	.+32     	; 0x13c0 <__mulsf3_pse+0xa0>
    13a0:	0c 94 29 09 	jmp	0x1252	; 0x1252 <__fp_inf>
    13a4:	0c 94 74 09 	jmp	0x12e8	; 0x12e8 <__fp_szero>
    13a8:	5f 3f       	cpi	r21, 0xFF	; 255
    13aa:	e4 f3       	brlt	.-8      	; 0x13a4 <__mulsf3_pse+0x84>
    13ac:	98 3e       	cpi	r25, 0xE8	; 232
    13ae:	d4 f3       	brlt	.-12     	; 0x13a4 <__mulsf3_pse+0x84>
    13b0:	86 95       	lsr	r24
    13b2:	77 95       	ror	r23
    13b4:	67 95       	ror	r22
    13b6:	b7 95       	ror	r27
    13b8:	f7 95       	ror	r31
    13ba:	e7 95       	ror	r30
    13bc:	9f 5f       	subi	r25, 0xFF	; 255
    13be:	c1 f7       	brne	.-16     	; 0x13b0 <__mulsf3_pse+0x90>
    13c0:	fe 2b       	or	r31, r30
    13c2:	88 0f       	add	r24, r24
    13c4:	91 1d       	adc	r25, r1
    13c6:	96 95       	lsr	r25
    13c8:	87 95       	ror	r24
    13ca:	97 f9       	bld	r25, 7
    13cc:	08 95       	ret

000013ce <sin>:
    13ce:	9f 93       	push	r25
    13d0:	0e 94 f1 09 	call	0x13e2	; 0x13e2 <__fp_rempio2>
    13d4:	0f 90       	pop	r0
    13d6:	07 fc       	sbrc	r0, 7
    13d8:	ee 5f       	subi	r30, 0xFE	; 254
    13da:	0c 94 1a 0a 	jmp	0x1434	; 0x1434 <__fp_sinus>
    13de:	0c 94 2f 09 	jmp	0x125e	; 0x125e <__fp_nan>

000013e2 <__fp_rempio2>:
    13e2:	0e 94 59 09 	call	0x12b2	; 0x12b2 <__fp_splitA>
    13e6:	d8 f3       	brcs	.-10     	; 0x13de <sin+0x10>
    13e8:	e8 94       	clt
    13ea:	e0 e0       	ldi	r30, 0x00	; 0
    13ec:	bb 27       	eor	r27, r27
    13ee:	9f 57       	subi	r25, 0x7F	; 127
    13f0:	f0 f0       	brcs	.+60     	; 0x142e <__fp_rempio2+0x4c>
    13f2:	2a ed       	ldi	r18, 0xDA	; 218
    13f4:	3f e0       	ldi	r19, 0x0F	; 15
    13f6:	49 ec       	ldi	r20, 0xC9	; 201
    13f8:	06 c0       	rjmp	.+12     	; 0x1406 <__fp_rempio2+0x24>
    13fa:	ee 0f       	add	r30, r30
    13fc:	bb 0f       	add	r27, r27
    13fe:	66 1f       	adc	r22, r22
    1400:	77 1f       	adc	r23, r23
    1402:	88 1f       	adc	r24, r24
    1404:	28 f0       	brcs	.+10     	; 0x1410 <__fp_rempio2+0x2e>
    1406:	b2 3a       	cpi	r27, 0xA2	; 162
    1408:	62 07       	cpc	r22, r18
    140a:	73 07       	cpc	r23, r19
    140c:	84 07       	cpc	r24, r20
    140e:	28 f0       	brcs	.+10     	; 0x141a <__fp_rempio2+0x38>
    1410:	b2 5a       	subi	r27, 0xA2	; 162
    1412:	62 0b       	sbc	r22, r18
    1414:	73 0b       	sbc	r23, r19
    1416:	84 0b       	sbc	r24, r20
    1418:	e3 95       	inc	r30
    141a:	9a 95       	dec	r25
    141c:	72 f7       	brpl	.-36     	; 0x13fa <__fp_rempio2+0x18>
    141e:	80 38       	cpi	r24, 0x80	; 128
    1420:	30 f4       	brcc	.+12     	; 0x142e <__fp_rempio2+0x4c>
    1422:	9a 95       	dec	r25
    1424:	bb 0f       	add	r27, r27
    1426:	66 1f       	adc	r22, r22
    1428:	77 1f       	adc	r23, r23
    142a:	88 1f       	adc	r24, r24
    142c:	d2 f7       	brpl	.-12     	; 0x1422 <__fp_rempio2+0x40>
    142e:	90 48       	sbci	r25, 0x80	; 128
    1430:	0c 94 30 0a 	jmp	0x1460	; 0x1460 <__fp_mpack_finite>

00001434 <__fp_sinus>:
    1434:	ef 93       	push	r30
    1436:	e0 ff       	sbrs	r30, 0
    1438:	07 c0       	rjmp	.+14     	; 0x1448 <__fp_sinus+0x14>
    143a:	a2 ea       	ldi	r26, 0xA2	; 162
    143c:	2a ed       	ldi	r18, 0xDA	; 218
    143e:	3f e0       	ldi	r19, 0x0F	; 15
    1440:	49 ec       	ldi	r20, 0xC9	; 201
    1442:	5f eb       	ldi	r21, 0xBF	; 191
    1444:	0e 94 ef 07 	call	0xfde	; 0xfde <__addsf3x>
    1448:	0e 94 40 09 	call	0x1280	; 0x1280 <__fp_round>
    144c:	0f 90       	pop	r0
    144e:	03 94       	inc	r0
    1450:	01 fc       	sbrc	r0, 1
    1452:	90 58       	subi	r25, 0x80	; 128
    1454:	e2 e0       	ldi	r30, 0x02	; 2
    1456:	f1 e0       	ldi	r31, 0x01	; 1
    1458:	0c 94 3c 0a 	jmp	0x1478	; 0x1478 <__fp_powsodd>

0000145c <__fp_mpack>:
    145c:	9f 3f       	cpi	r25, 0xFF	; 255
    145e:	31 f0       	breq	.+12     	; 0x146c <__fp_mpack_finite+0xc>

00001460 <__fp_mpack_finite>:
    1460:	91 50       	subi	r25, 0x01	; 1
    1462:	20 f4       	brcc	.+8      	; 0x146c <__fp_mpack_finite+0xc>
    1464:	87 95       	ror	r24
    1466:	77 95       	ror	r23
    1468:	67 95       	ror	r22
    146a:	b7 95       	ror	r27
    146c:	88 0f       	add	r24, r24
    146e:	91 1d       	adc	r25, r1
    1470:	96 95       	lsr	r25
    1472:	87 95       	ror	r24
    1474:	97 f9       	bld	r25, 7
    1476:	08 95       	ret

00001478 <__fp_powsodd>:
    1478:	9f 93       	push	r25
    147a:	8f 93       	push	r24
    147c:	7f 93       	push	r23
    147e:	6f 93       	push	r22
    1480:	ff 93       	push	r31
    1482:	ef 93       	push	r30
    1484:	9b 01       	movw	r18, r22
    1486:	ac 01       	movw	r20, r24
    1488:	0e 94 7a 09 	call	0x12f4	; 0x12f4 <__mulsf3>
    148c:	ef 91       	pop	r30
    148e:	ff 91       	pop	r31
    1490:	0e 94 50 0a 	call	0x14a0	; 0x14a0 <__fp_powser>
    1494:	2f 91       	pop	r18
    1496:	3f 91       	pop	r19
    1498:	4f 91       	pop	r20
    149a:	5f 91       	pop	r21
    149c:	0c 94 7a 09 	jmp	0x12f4	; 0x12f4 <__mulsf3>

000014a0 <__fp_powser>:
    14a0:	df 93       	push	r29
    14a2:	cf 93       	push	r28
    14a4:	1f 93       	push	r17
    14a6:	0f 93       	push	r16
    14a8:	ff 92       	push	r15
    14aa:	ef 92       	push	r14
    14ac:	df 92       	push	r13
    14ae:	7b 01       	movw	r14, r22
    14b0:	8c 01       	movw	r16, r24
    14b2:	68 94       	set
    14b4:	06 c0       	rjmp	.+12     	; 0x14c2 <__fp_powser+0x22>
    14b6:	da 2e       	mov	r13, r26
    14b8:	ef 01       	movw	r28, r30
    14ba:	0e 94 8d 09 	call	0x131a	; 0x131a <__mulsf3x>
    14be:	fe 01       	movw	r30, r28
    14c0:	e8 94       	clt
    14c2:	a5 91       	lpm	r26, Z+
    14c4:	25 91       	lpm	r18, Z+
    14c6:	35 91       	lpm	r19, Z+
    14c8:	45 91       	lpm	r20, Z+
    14ca:	55 91       	lpm	r21, Z+
    14cc:	a6 f3       	brts	.-24     	; 0x14b6 <__fp_powser+0x16>
    14ce:	ef 01       	movw	r28, r30
    14d0:	0e 94 ef 07 	call	0xfde	; 0xfde <__addsf3x>
    14d4:	fe 01       	movw	r30, r28
    14d6:	97 01       	movw	r18, r14
    14d8:	a8 01       	movw	r20, r16
    14da:	da 94       	dec	r13
    14dc:	69 f7       	brne	.-38     	; 0x14b8 <__fp_powser+0x18>
    14de:	df 90       	pop	r13
    14e0:	ef 90       	pop	r14
    14e2:	ff 90       	pop	r15
    14e4:	0f 91       	pop	r16
    14e6:	1f 91       	pop	r17
    14e8:	cf 91       	pop	r28
    14ea:	df 91       	pop	r29
    14ec:	08 95       	ret

000014ee <__divmodhi4>:
    14ee:	97 fb       	bst	r25, 7
    14f0:	07 2e       	mov	r0, r23
    14f2:	16 f4       	brtc	.+4      	; 0x14f8 <__divmodhi4+0xa>
    14f4:	00 94       	com	r0
    14f6:	07 d0       	rcall	.+14     	; 0x1506 <__divmodhi4_neg1>
    14f8:	77 fd       	sbrc	r23, 7
    14fa:	09 d0       	rcall	.+18     	; 0x150e <__divmodhi4_neg2>
    14fc:	0e 94 a0 0a 	call	0x1540	; 0x1540 <__udivmodhi4>
    1500:	07 fc       	sbrc	r0, 7
    1502:	05 d0       	rcall	.+10     	; 0x150e <__divmodhi4_neg2>
    1504:	3e f4       	brtc	.+14     	; 0x1514 <__divmodhi4_exit>

00001506 <__divmodhi4_neg1>:
    1506:	90 95       	com	r25
    1508:	81 95       	neg	r24
    150a:	9f 4f       	sbci	r25, 0xFF	; 255
    150c:	08 95       	ret

0000150e <__divmodhi4_neg2>:
    150e:	70 95       	com	r23
    1510:	61 95       	neg	r22
    1512:	7f 4f       	sbci	r23, 0xFF	; 255

00001514 <__divmodhi4_exit>:
    1514:	08 95       	ret

00001516 <__tablejump2__>:
    1516:	ee 0f       	add	r30, r30
    1518:	ff 1f       	adc	r31, r31
    151a:	05 90       	lpm	r0, Z+
    151c:	f4 91       	lpm	r31, Z
    151e:	e0 2d       	mov	r30, r0
    1520:	09 94       	ijmp

00001522 <__umulhisi3>:
    1522:	a2 9f       	mul	r26, r18
    1524:	b0 01       	movw	r22, r0
    1526:	b3 9f       	mul	r27, r19
    1528:	c0 01       	movw	r24, r0
    152a:	a3 9f       	mul	r26, r19
    152c:	70 0d       	add	r23, r0
    152e:	81 1d       	adc	r24, r1
    1530:	11 24       	eor	r1, r1
    1532:	91 1d       	adc	r25, r1
    1534:	b2 9f       	mul	r27, r18
    1536:	70 0d       	add	r23, r0
    1538:	81 1d       	adc	r24, r1
    153a:	11 24       	eor	r1, r1
    153c:	91 1d       	adc	r25, r1
    153e:	08 95       	ret

00001540 <__udivmodhi4>:
    1540:	aa 1b       	sub	r26, r26
    1542:	bb 1b       	sub	r27, r27
    1544:	51 e1       	ldi	r21, 0x11	; 17
    1546:	07 c0       	rjmp	.+14     	; 0x1556 <__udivmodhi4_ep>

00001548 <__udivmodhi4_loop>:
    1548:	aa 1f       	adc	r26, r26
    154a:	bb 1f       	adc	r27, r27
    154c:	a6 17       	cp	r26, r22
    154e:	b7 07       	cpc	r27, r23
    1550:	10 f0       	brcs	.+4      	; 0x1556 <__udivmodhi4_ep>
    1552:	a6 1b       	sub	r26, r22
    1554:	b7 0b       	sbc	r27, r23

00001556 <__udivmodhi4_ep>:
    1556:	88 1f       	adc	r24, r24
    1558:	99 1f       	adc	r25, r25
    155a:	5a 95       	dec	r21
    155c:	a9 f7       	brne	.-22     	; 0x1548 <__udivmodhi4_loop>
    155e:	80 95       	com	r24
    1560:	90 95       	com	r25
    1562:	bc 01       	movw	r22, r24
    1564:	cd 01       	movw	r24, r26
    1566:	08 95       	ret

00001568 <do_rand>:
    1568:	8f 92       	push	r8
    156a:	9f 92       	push	r9
    156c:	af 92       	push	r10
    156e:	bf 92       	push	r11
    1570:	cf 92       	push	r12
    1572:	df 92       	push	r13
    1574:	ef 92       	push	r14
    1576:	ff 92       	push	r15
    1578:	cf 93       	push	r28
    157a:	df 93       	push	r29
    157c:	ec 01       	movw	r28, r24
    157e:	68 81       	ld	r22, Y
    1580:	79 81       	ldd	r23, Y+1	; 0x01
    1582:	8a 81       	ldd	r24, Y+2	; 0x02
    1584:	9b 81       	ldd	r25, Y+3	; 0x03
    1586:	61 15       	cp	r22, r1
    1588:	71 05       	cpc	r23, r1
    158a:	81 05       	cpc	r24, r1
    158c:	91 05       	cpc	r25, r1
    158e:	21 f4       	brne	.+8      	; 0x1598 <do_rand+0x30>
    1590:	64 e2       	ldi	r22, 0x24	; 36
    1592:	79 ed       	ldi	r23, 0xD9	; 217
    1594:	8b e5       	ldi	r24, 0x5B	; 91
    1596:	97 e0       	ldi	r25, 0x07	; 7
    1598:	2d e1       	ldi	r18, 0x1D	; 29
    159a:	33 ef       	ldi	r19, 0xF3	; 243
    159c:	41 e0       	ldi	r20, 0x01	; 1
    159e:	50 e0       	ldi	r21, 0x00	; 0
    15a0:	0e 94 c3 0d 	call	0x1b86	; 0x1b86 <__divmodsi4>
    15a4:	49 01       	movw	r8, r18
    15a6:	5a 01       	movw	r10, r20
    15a8:	9b 01       	movw	r18, r22
    15aa:	ac 01       	movw	r20, r24
    15ac:	a7 ea       	ldi	r26, 0xA7	; 167
    15ae:	b1 e4       	ldi	r27, 0x41	; 65
    15b0:	0e 94 e2 0d 	call	0x1bc4	; 0x1bc4 <__muluhisi3>
    15b4:	6b 01       	movw	r12, r22
    15b6:	7c 01       	movw	r14, r24
    15b8:	ac ee       	ldi	r26, 0xEC	; 236
    15ba:	b4 ef       	ldi	r27, 0xF4	; 244
    15bc:	a5 01       	movw	r20, r10
    15be:	94 01       	movw	r18, r8
    15c0:	0e 94 f0 0d 	call	0x1be0	; 0x1be0 <__mulohisi3>
    15c4:	dc 01       	movw	r26, r24
    15c6:	cb 01       	movw	r24, r22
    15c8:	8c 0d       	add	r24, r12
    15ca:	9d 1d       	adc	r25, r13
    15cc:	ae 1d       	adc	r26, r14
    15ce:	bf 1d       	adc	r27, r15
    15d0:	b7 ff       	sbrs	r27, 7
    15d2:	03 c0       	rjmp	.+6      	; 0x15da <do_rand+0x72>
    15d4:	01 97       	sbiw	r24, 0x01	; 1
    15d6:	a1 09       	sbc	r26, r1
    15d8:	b0 48       	sbci	r27, 0x80	; 128
    15da:	88 83       	st	Y, r24
    15dc:	99 83       	std	Y+1, r25	; 0x01
    15de:	aa 83       	std	Y+2, r26	; 0x02
    15e0:	bb 83       	std	Y+3, r27	; 0x03
    15e2:	9f 77       	andi	r25, 0x7F	; 127
    15e4:	df 91       	pop	r29
    15e6:	cf 91       	pop	r28
    15e8:	ff 90       	pop	r15
    15ea:	ef 90       	pop	r14
    15ec:	df 90       	pop	r13
    15ee:	cf 90       	pop	r12
    15f0:	bf 90       	pop	r11
    15f2:	af 90       	pop	r10
    15f4:	9f 90       	pop	r9
    15f6:	8f 90       	pop	r8
    15f8:	08 95       	ret

000015fa <rand_r>:
    15fa:	0e 94 b4 0a 	call	0x1568	; 0x1568 <do_rand>
    15fe:	08 95       	ret

00001600 <rand>:
    1600:	80 e0       	ldi	r24, 0x00	; 0
    1602:	91 e0       	ldi	r25, 0x01	; 1
    1604:	0e 94 b4 0a 	call	0x1568	; 0x1568 <do_rand>
    1608:	08 95       	ret

0000160a <srand>:
    160a:	a0 e0       	ldi	r26, 0x00	; 0
    160c:	b0 e0       	ldi	r27, 0x00	; 0
    160e:	80 93 00 01 	sts	0x0100, r24	; 0x800100 <__DATA_REGION_ORIGIN__>
    1612:	90 93 01 01 	sts	0x0101, r25	; 0x800101 <__DATA_REGION_ORIGIN__+0x1>
    1616:	a0 93 02 01 	sts	0x0102, r26	; 0x800102 <__DATA_REGION_ORIGIN__+0x2>
    161a:	b0 93 03 01 	sts	0x0103, r27	; 0x800103 <__DATA_REGION_ORIGIN__+0x3>
    161e:	08 95       	ret

00001620 <sprintf>:
    1620:	ae e0       	ldi	r26, 0x0E	; 14
    1622:	b0 e0       	ldi	r27, 0x00	; 0
    1624:	e6 e1       	ldi	r30, 0x16	; 22
    1626:	fb e0       	ldi	r31, 0x0B	; 11
    1628:	0c 94 03 0e 	jmp	0x1c06	; 0x1c06 <__prologue_saves__+0x1c>
    162c:	0d 89       	ldd	r16, Y+21	; 0x15
    162e:	1e 89       	ldd	r17, Y+22	; 0x16
    1630:	86 e0       	ldi	r24, 0x06	; 6
    1632:	8c 83       	std	Y+4, r24	; 0x04
    1634:	1a 83       	std	Y+2, r17	; 0x02
    1636:	09 83       	std	Y+1, r16	; 0x01
    1638:	8f ef       	ldi	r24, 0xFF	; 255
    163a:	9f e7       	ldi	r25, 0x7F	; 127
    163c:	9e 83       	std	Y+6, r25	; 0x06
    163e:	8d 83       	std	Y+5, r24	; 0x05
    1640:	ae 01       	movw	r20, r28
    1642:	47 5e       	subi	r20, 0xE7	; 231
    1644:	5f 4f       	sbci	r21, 0xFF	; 255
    1646:	6f 89       	ldd	r22, Y+23	; 0x17
    1648:	78 8d       	ldd	r23, Y+24	; 0x18
    164a:	ce 01       	movw	r24, r28
    164c:	01 96       	adiw	r24, 0x01	; 1
    164e:	0e 94 32 0b 	call	0x1664	; 0x1664 <vfprintf>
    1652:	ef 81       	ldd	r30, Y+7	; 0x07
    1654:	f8 85       	ldd	r31, Y+8	; 0x08
    1656:	e0 0f       	add	r30, r16
    1658:	f1 1f       	adc	r31, r17
    165a:	10 82       	st	Z, r1
    165c:	2e 96       	adiw	r28, 0x0e	; 14
    165e:	e4 e0       	ldi	r30, 0x04	; 4
    1660:	0c 94 1f 0e 	jmp	0x1c3e	; 0x1c3e <__epilogue_restores__+0x1c>

00001664 <vfprintf>:
    1664:	ab e0       	ldi	r26, 0x0B	; 11
    1666:	b0 e0       	ldi	r27, 0x00	; 0
    1668:	e8 e3       	ldi	r30, 0x38	; 56
    166a:	fb e0       	ldi	r31, 0x0B	; 11
    166c:	0c 94 f5 0d 	jmp	0x1bea	; 0x1bea <__prologue_saves__>
    1670:	6c 01       	movw	r12, r24
    1672:	7b 01       	movw	r14, r22
    1674:	8a 01       	movw	r16, r20
    1676:	fc 01       	movw	r30, r24
    1678:	17 82       	std	Z+7, r1	; 0x07
    167a:	16 82       	std	Z+6, r1	; 0x06
    167c:	83 81       	ldd	r24, Z+3	; 0x03
    167e:	81 ff       	sbrs	r24, 1
    1680:	cc c1       	rjmp	.+920    	; 0x1a1a <vfprintf+0x3b6>
    1682:	ce 01       	movw	r24, r28
    1684:	01 96       	adiw	r24, 0x01	; 1
    1686:	3c 01       	movw	r6, r24
    1688:	f6 01       	movw	r30, r12
    168a:	93 81       	ldd	r25, Z+3	; 0x03
    168c:	f7 01       	movw	r30, r14
    168e:	93 fd       	sbrc	r25, 3
    1690:	85 91       	lpm	r24, Z+
    1692:	93 ff       	sbrs	r25, 3
    1694:	81 91       	ld	r24, Z+
    1696:	7f 01       	movw	r14, r30
    1698:	88 23       	and	r24, r24
    169a:	09 f4       	brne	.+2      	; 0x169e <vfprintf+0x3a>
    169c:	ba c1       	rjmp	.+884    	; 0x1a12 <vfprintf+0x3ae>
    169e:	85 32       	cpi	r24, 0x25	; 37
    16a0:	39 f4       	brne	.+14     	; 0x16b0 <vfprintf+0x4c>
    16a2:	93 fd       	sbrc	r25, 3
    16a4:	85 91       	lpm	r24, Z+
    16a6:	93 ff       	sbrs	r25, 3
    16a8:	81 91       	ld	r24, Z+
    16aa:	7f 01       	movw	r14, r30
    16ac:	85 32       	cpi	r24, 0x25	; 37
    16ae:	29 f4       	brne	.+10     	; 0x16ba <vfprintf+0x56>
    16b0:	b6 01       	movw	r22, r12
    16b2:	90 e0       	ldi	r25, 0x00	; 0
    16b4:	0e 94 29 0d 	call	0x1a52	; 0x1a52 <fputc>
    16b8:	e7 cf       	rjmp	.-50     	; 0x1688 <vfprintf+0x24>
    16ba:	91 2c       	mov	r9, r1
    16bc:	21 2c       	mov	r2, r1
    16be:	31 2c       	mov	r3, r1
    16c0:	ff e1       	ldi	r31, 0x1F	; 31
    16c2:	f3 15       	cp	r31, r3
    16c4:	d8 f0       	brcs	.+54     	; 0x16fc <vfprintf+0x98>
    16c6:	8b 32       	cpi	r24, 0x2B	; 43
    16c8:	79 f0       	breq	.+30     	; 0x16e8 <vfprintf+0x84>
    16ca:	38 f4       	brcc	.+14     	; 0x16da <vfprintf+0x76>
    16cc:	80 32       	cpi	r24, 0x20	; 32
    16ce:	79 f0       	breq	.+30     	; 0x16ee <vfprintf+0x8a>
    16d0:	83 32       	cpi	r24, 0x23	; 35
    16d2:	a1 f4       	brne	.+40     	; 0x16fc <vfprintf+0x98>
    16d4:	23 2d       	mov	r18, r3
    16d6:	20 61       	ori	r18, 0x10	; 16
    16d8:	1d c0       	rjmp	.+58     	; 0x1714 <vfprintf+0xb0>
    16da:	8d 32       	cpi	r24, 0x2D	; 45
    16dc:	61 f0       	breq	.+24     	; 0x16f6 <vfprintf+0x92>
    16de:	80 33       	cpi	r24, 0x30	; 48
    16e0:	69 f4       	brne	.+26     	; 0x16fc <vfprintf+0x98>
    16e2:	23 2d       	mov	r18, r3
    16e4:	21 60       	ori	r18, 0x01	; 1
    16e6:	16 c0       	rjmp	.+44     	; 0x1714 <vfprintf+0xb0>
    16e8:	83 2d       	mov	r24, r3
    16ea:	82 60       	ori	r24, 0x02	; 2
    16ec:	38 2e       	mov	r3, r24
    16ee:	e3 2d       	mov	r30, r3
    16f0:	e4 60       	ori	r30, 0x04	; 4
    16f2:	3e 2e       	mov	r3, r30
    16f4:	2a c0       	rjmp	.+84     	; 0x174a <vfprintf+0xe6>
    16f6:	f3 2d       	mov	r31, r3
    16f8:	f8 60       	ori	r31, 0x08	; 8
    16fa:	1d c0       	rjmp	.+58     	; 0x1736 <vfprintf+0xd2>
    16fc:	37 fc       	sbrc	r3, 7
    16fe:	2d c0       	rjmp	.+90     	; 0x175a <vfprintf+0xf6>
    1700:	20 ed       	ldi	r18, 0xD0	; 208
    1702:	28 0f       	add	r18, r24
    1704:	2a 30       	cpi	r18, 0x0A	; 10
    1706:	40 f0       	brcs	.+16     	; 0x1718 <vfprintf+0xb4>
    1708:	8e 32       	cpi	r24, 0x2E	; 46
    170a:	b9 f4       	brne	.+46     	; 0x173a <vfprintf+0xd6>
    170c:	36 fc       	sbrc	r3, 6
    170e:	81 c1       	rjmp	.+770    	; 0x1a12 <vfprintf+0x3ae>
    1710:	23 2d       	mov	r18, r3
    1712:	20 64       	ori	r18, 0x40	; 64
    1714:	32 2e       	mov	r3, r18
    1716:	19 c0       	rjmp	.+50     	; 0x174a <vfprintf+0xe6>
    1718:	36 fe       	sbrs	r3, 6
    171a:	06 c0       	rjmp	.+12     	; 0x1728 <vfprintf+0xc4>
    171c:	8a e0       	ldi	r24, 0x0A	; 10
    171e:	98 9e       	mul	r9, r24
    1720:	20 0d       	add	r18, r0
    1722:	11 24       	eor	r1, r1
    1724:	92 2e       	mov	r9, r18
    1726:	11 c0       	rjmp	.+34     	; 0x174a <vfprintf+0xe6>
    1728:	ea e0       	ldi	r30, 0x0A	; 10
    172a:	2e 9e       	mul	r2, r30
    172c:	20 0d       	add	r18, r0
    172e:	11 24       	eor	r1, r1
    1730:	22 2e       	mov	r2, r18
    1732:	f3 2d       	mov	r31, r3
    1734:	f0 62       	ori	r31, 0x20	; 32
    1736:	3f 2e       	mov	r3, r31
    1738:	08 c0       	rjmp	.+16     	; 0x174a <vfprintf+0xe6>
    173a:	8c 36       	cpi	r24, 0x6C	; 108
    173c:	21 f4       	brne	.+8      	; 0x1746 <vfprintf+0xe2>
    173e:	83 2d       	mov	r24, r3
    1740:	80 68       	ori	r24, 0x80	; 128
    1742:	38 2e       	mov	r3, r24
    1744:	02 c0       	rjmp	.+4      	; 0x174a <vfprintf+0xe6>
    1746:	88 36       	cpi	r24, 0x68	; 104
    1748:	41 f4       	brne	.+16     	; 0x175a <vfprintf+0xf6>
    174a:	f7 01       	movw	r30, r14
    174c:	93 fd       	sbrc	r25, 3
    174e:	85 91       	lpm	r24, Z+
    1750:	93 ff       	sbrs	r25, 3
    1752:	81 91       	ld	r24, Z+
    1754:	7f 01       	movw	r14, r30
    1756:	81 11       	cpse	r24, r1
    1758:	b3 cf       	rjmp	.-154    	; 0x16c0 <vfprintf+0x5c>
    175a:	98 2f       	mov	r25, r24
    175c:	9f 7d       	andi	r25, 0xDF	; 223
    175e:	95 54       	subi	r25, 0x45	; 69
    1760:	93 30       	cpi	r25, 0x03	; 3
    1762:	28 f4       	brcc	.+10     	; 0x176e <vfprintf+0x10a>
    1764:	0c 5f       	subi	r16, 0xFC	; 252
    1766:	1f 4f       	sbci	r17, 0xFF	; 255
    1768:	9f e3       	ldi	r25, 0x3F	; 63
    176a:	99 83       	std	Y+1, r25	; 0x01
    176c:	0d c0       	rjmp	.+26     	; 0x1788 <vfprintf+0x124>
    176e:	83 36       	cpi	r24, 0x63	; 99
    1770:	31 f0       	breq	.+12     	; 0x177e <vfprintf+0x11a>
    1772:	83 37       	cpi	r24, 0x73	; 115
    1774:	71 f0       	breq	.+28     	; 0x1792 <vfprintf+0x12e>
    1776:	83 35       	cpi	r24, 0x53	; 83
    1778:	09 f0       	breq	.+2      	; 0x177c <vfprintf+0x118>
    177a:	59 c0       	rjmp	.+178    	; 0x182e <vfprintf+0x1ca>
    177c:	21 c0       	rjmp	.+66     	; 0x17c0 <vfprintf+0x15c>
    177e:	f8 01       	movw	r30, r16
    1780:	80 81       	ld	r24, Z
    1782:	89 83       	std	Y+1, r24	; 0x01
    1784:	0e 5f       	subi	r16, 0xFE	; 254
    1786:	1f 4f       	sbci	r17, 0xFF	; 255
    1788:	88 24       	eor	r8, r8
    178a:	83 94       	inc	r8
    178c:	91 2c       	mov	r9, r1
    178e:	53 01       	movw	r10, r6
    1790:	13 c0       	rjmp	.+38     	; 0x17b8 <vfprintf+0x154>
    1792:	28 01       	movw	r4, r16
    1794:	f2 e0       	ldi	r31, 0x02	; 2
    1796:	4f 0e       	add	r4, r31
    1798:	51 1c       	adc	r5, r1
    179a:	f8 01       	movw	r30, r16
    179c:	a0 80       	ld	r10, Z
    179e:	b1 80       	ldd	r11, Z+1	; 0x01
    17a0:	36 fe       	sbrs	r3, 6
    17a2:	03 c0       	rjmp	.+6      	; 0x17aa <vfprintf+0x146>
    17a4:	69 2d       	mov	r22, r9
    17a6:	70 e0       	ldi	r23, 0x00	; 0
    17a8:	02 c0       	rjmp	.+4      	; 0x17ae <vfprintf+0x14a>
    17aa:	6f ef       	ldi	r22, 0xFF	; 255
    17ac:	7f ef       	ldi	r23, 0xFF	; 255
    17ae:	c5 01       	movw	r24, r10
    17b0:	0e 94 1e 0d 	call	0x1a3c	; 0x1a3c <strnlen>
    17b4:	4c 01       	movw	r8, r24
    17b6:	82 01       	movw	r16, r4
    17b8:	f3 2d       	mov	r31, r3
    17ba:	ff 77       	andi	r31, 0x7F	; 127
    17bc:	3f 2e       	mov	r3, r31
    17be:	16 c0       	rjmp	.+44     	; 0x17ec <vfprintf+0x188>
    17c0:	28 01       	movw	r4, r16
    17c2:	22 e0       	ldi	r18, 0x02	; 2
    17c4:	42 0e       	add	r4, r18
    17c6:	51 1c       	adc	r5, r1
    17c8:	f8 01       	movw	r30, r16
    17ca:	a0 80       	ld	r10, Z
    17cc:	b1 80       	ldd	r11, Z+1	; 0x01
    17ce:	36 fe       	sbrs	r3, 6
    17d0:	03 c0       	rjmp	.+6      	; 0x17d8 <vfprintf+0x174>
    17d2:	69 2d       	mov	r22, r9
    17d4:	70 e0       	ldi	r23, 0x00	; 0
    17d6:	02 c0       	rjmp	.+4      	; 0x17dc <vfprintf+0x178>
    17d8:	6f ef       	ldi	r22, 0xFF	; 255
    17da:	7f ef       	ldi	r23, 0xFF	; 255
    17dc:	c5 01       	movw	r24, r10
    17de:	0e 94 13 0d 	call	0x1a26	; 0x1a26 <strnlen_P>
    17e2:	4c 01       	movw	r8, r24
    17e4:	f3 2d       	mov	r31, r3
    17e6:	f0 68       	ori	r31, 0x80	; 128
    17e8:	3f 2e       	mov	r3, r31
    17ea:	82 01       	movw	r16, r4
    17ec:	33 fc       	sbrc	r3, 3
    17ee:	1b c0       	rjmp	.+54     	; 0x1826 <vfprintf+0x1c2>
    17f0:	82 2d       	mov	r24, r2
    17f2:	90 e0       	ldi	r25, 0x00	; 0
    17f4:	88 16       	cp	r8, r24
    17f6:	99 06       	cpc	r9, r25
    17f8:	b0 f4       	brcc	.+44     	; 0x1826 <vfprintf+0x1c2>
    17fa:	b6 01       	movw	r22, r12
    17fc:	80 e2       	ldi	r24, 0x20	; 32
    17fe:	90 e0       	ldi	r25, 0x00	; 0
    1800:	0e 94 29 0d 	call	0x1a52	; 0x1a52 <fputc>
    1804:	2a 94       	dec	r2
    1806:	f4 cf       	rjmp	.-24     	; 0x17f0 <vfprintf+0x18c>
    1808:	f5 01       	movw	r30, r10
    180a:	37 fc       	sbrc	r3, 7
    180c:	85 91       	lpm	r24, Z+
    180e:	37 fe       	sbrs	r3, 7
    1810:	81 91       	ld	r24, Z+
    1812:	5f 01       	movw	r10, r30
    1814:	b6 01       	movw	r22, r12
    1816:	90 e0       	ldi	r25, 0x00	; 0
    1818:	0e 94 29 0d 	call	0x1a52	; 0x1a52 <fputc>
    181c:	21 10       	cpse	r2, r1
    181e:	2a 94       	dec	r2
    1820:	21 e0       	ldi	r18, 0x01	; 1
    1822:	82 1a       	sub	r8, r18
    1824:	91 08       	sbc	r9, r1
    1826:	81 14       	cp	r8, r1
    1828:	91 04       	cpc	r9, r1
    182a:	71 f7       	brne	.-36     	; 0x1808 <vfprintf+0x1a4>
    182c:	e8 c0       	rjmp	.+464    	; 0x19fe <vfprintf+0x39a>
    182e:	84 36       	cpi	r24, 0x64	; 100
    1830:	11 f0       	breq	.+4      	; 0x1836 <vfprintf+0x1d2>
    1832:	89 36       	cpi	r24, 0x69	; 105
    1834:	41 f5       	brne	.+80     	; 0x1886 <vfprintf+0x222>
    1836:	f8 01       	movw	r30, r16
    1838:	37 fe       	sbrs	r3, 7
    183a:	07 c0       	rjmp	.+14     	; 0x184a <vfprintf+0x1e6>
    183c:	60 81       	ld	r22, Z
    183e:	71 81       	ldd	r23, Z+1	; 0x01
    1840:	82 81       	ldd	r24, Z+2	; 0x02
    1842:	93 81       	ldd	r25, Z+3	; 0x03
    1844:	0c 5f       	subi	r16, 0xFC	; 252
    1846:	1f 4f       	sbci	r17, 0xFF	; 255
    1848:	08 c0       	rjmp	.+16     	; 0x185a <vfprintf+0x1f6>
    184a:	60 81       	ld	r22, Z
    184c:	71 81       	ldd	r23, Z+1	; 0x01
    184e:	07 2e       	mov	r0, r23
    1850:	00 0c       	add	r0, r0
    1852:	88 0b       	sbc	r24, r24
    1854:	99 0b       	sbc	r25, r25
    1856:	0e 5f       	subi	r16, 0xFE	; 254
    1858:	1f 4f       	sbci	r17, 0xFF	; 255
    185a:	f3 2d       	mov	r31, r3
    185c:	ff 76       	andi	r31, 0x6F	; 111
    185e:	3f 2e       	mov	r3, r31
    1860:	97 ff       	sbrs	r25, 7
    1862:	09 c0       	rjmp	.+18     	; 0x1876 <vfprintf+0x212>
    1864:	90 95       	com	r25
    1866:	80 95       	com	r24
    1868:	70 95       	com	r23
    186a:	61 95       	neg	r22
    186c:	7f 4f       	sbci	r23, 0xFF	; 255
    186e:	8f 4f       	sbci	r24, 0xFF	; 255
    1870:	9f 4f       	sbci	r25, 0xFF	; 255
    1872:	f0 68       	ori	r31, 0x80	; 128
    1874:	3f 2e       	mov	r3, r31
    1876:	2a e0       	ldi	r18, 0x0A	; 10
    1878:	30 e0       	ldi	r19, 0x00	; 0
    187a:	a3 01       	movw	r20, r6
    187c:	0e 94 65 0d 	call	0x1aca	; 0x1aca <__ultoa_invert>
    1880:	88 2e       	mov	r8, r24
    1882:	86 18       	sub	r8, r6
    1884:	45 c0       	rjmp	.+138    	; 0x1910 <vfprintf+0x2ac>
    1886:	85 37       	cpi	r24, 0x75	; 117
    1888:	31 f4       	brne	.+12     	; 0x1896 <vfprintf+0x232>
    188a:	23 2d       	mov	r18, r3
    188c:	2f 7e       	andi	r18, 0xEF	; 239
    188e:	b2 2e       	mov	r11, r18
    1890:	2a e0       	ldi	r18, 0x0A	; 10
    1892:	30 e0       	ldi	r19, 0x00	; 0
    1894:	25 c0       	rjmp	.+74     	; 0x18e0 <vfprintf+0x27c>
    1896:	93 2d       	mov	r25, r3
    1898:	99 7f       	andi	r25, 0xF9	; 249
    189a:	b9 2e       	mov	r11, r25
    189c:	8f 36       	cpi	r24, 0x6F	; 111
    189e:	c1 f0       	breq	.+48     	; 0x18d0 <vfprintf+0x26c>
    18a0:	18 f4       	brcc	.+6      	; 0x18a8 <vfprintf+0x244>
    18a2:	88 35       	cpi	r24, 0x58	; 88
    18a4:	79 f0       	breq	.+30     	; 0x18c4 <vfprintf+0x260>
    18a6:	b5 c0       	rjmp	.+362    	; 0x1a12 <vfprintf+0x3ae>
    18a8:	80 37       	cpi	r24, 0x70	; 112
    18aa:	19 f0       	breq	.+6      	; 0x18b2 <vfprintf+0x24e>
    18ac:	88 37       	cpi	r24, 0x78	; 120
    18ae:	21 f0       	breq	.+8      	; 0x18b8 <vfprintf+0x254>
    18b0:	b0 c0       	rjmp	.+352    	; 0x1a12 <vfprintf+0x3ae>
    18b2:	e9 2f       	mov	r30, r25
    18b4:	e0 61       	ori	r30, 0x10	; 16
    18b6:	be 2e       	mov	r11, r30
    18b8:	b4 fe       	sbrs	r11, 4
    18ba:	0d c0       	rjmp	.+26     	; 0x18d6 <vfprintf+0x272>
    18bc:	fb 2d       	mov	r31, r11
    18be:	f4 60       	ori	r31, 0x04	; 4
    18c0:	bf 2e       	mov	r11, r31
    18c2:	09 c0       	rjmp	.+18     	; 0x18d6 <vfprintf+0x272>
    18c4:	34 fe       	sbrs	r3, 4
    18c6:	0a c0       	rjmp	.+20     	; 0x18dc <vfprintf+0x278>
    18c8:	29 2f       	mov	r18, r25
    18ca:	26 60       	ori	r18, 0x06	; 6
    18cc:	b2 2e       	mov	r11, r18
    18ce:	06 c0       	rjmp	.+12     	; 0x18dc <vfprintf+0x278>
    18d0:	28 e0       	ldi	r18, 0x08	; 8
    18d2:	30 e0       	ldi	r19, 0x00	; 0
    18d4:	05 c0       	rjmp	.+10     	; 0x18e0 <vfprintf+0x27c>
    18d6:	20 e1       	ldi	r18, 0x10	; 16
    18d8:	30 e0       	ldi	r19, 0x00	; 0
    18da:	02 c0       	rjmp	.+4      	; 0x18e0 <vfprintf+0x27c>
    18dc:	20 e1       	ldi	r18, 0x10	; 16
    18de:	32 e0       	ldi	r19, 0x02	; 2
    18e0:	f8 01       	movw	r30, r16
    18e2:	b7 fe       	sbrs	r11, 7
    18e4:	07 c0       	rjmp	.+14     	; 0x18f4 <vfprintf+0x290>
    18e6:	60 81       	ld	r22, Z
    18e8:	71 81       	ldd	r23, Z+1	; 0x01
    18ea:	82 81       	ldd	r24, Z+2	; 0x02
    18ec:	93 81       	ldd	r25, Z+3	; 0x03
    18ee:	0c 5f       	subi	r16, 0xFC	; 252
    18f0:	1f 4f       	sbci	r17, 0xFF	; 255
    18f2:	06 c0       	rjmp	.+12     	; 0x1900 <vfprintf+0x29c>
    18f4:	60 81       	ld	r22, Z
    18f6:	71 81       	ldd	r23, Z+1	; 0x01
    18f8:	80 e0       	ldi	r24, 0x00	; 0
    18fa:	90 e0       	ldi	r25, 0x00	; 0
    18fc:	0e 5f       	subi	r16, 0xFE	; 254
    18fe:	1f 4f       	sbci	r17, 0xFF	; 255
    1900:	a3 01       	movw	r20, r6
    1902:	0e 94 65 0d 	call	0x1aca	; 0x1aca <__ultoa_invert>
    1906:	88 2e       	mov	r8, r24
    1908:	86 18       	sub	r8, r6
    190a:	fb 2d       	mov	r31, r11
    190c:	ff 77       	andi	r31, 0x7F	; 127
    190e:	3f 2e       	mov	r3, r31
    1910:	36 fe       	sbrs	r3, 6
    1912:	0d c0       	rjmp	.+26     	; 0x192e <vfprintf+0x2ca>
    1914:	23 2d       	mov	r18, r3
    1916:	2e 7f       	andi	r18, 0xFE	; 254
    1918:	a2 2e       	mov	r10, r18
    191a:	89 14       	cp	r8, r9
    191c:	58 f4       	brcc	.+22     	; 0x1934 <vfprintf+0x2d0>
    191e:	34 fe       	sbrs	r3, 4
    1920:	0b c0       	rjmp	.+22     	; 0x1938 <vfprintf+0x2d4>
    1922:	32 fc       	sbrc	r3, 2
    1924:	09 c0       	rjmp	.+18     	; 0x1938 <vfprintf+0x2d4>
    1926:	83 2d       	mov	r24, r3
    1928:	8e 7e       	andi	r24, 0xEE	; 238
    192a:	a8 2e       	mov	r10, r24
    192c:	05 c0       	rjmp	.+10     	; 0x1938 <vfprintf+0x2d4>
    192e:	b8 2c       	mov	r11, r8
    1930:	a3 2c       	mov	r10, r3
    1932:	03 c0       	rjmp	.+6      	; 0x193a <vfprintf+0x2d6>
    1934:	b8 2c       	mov	r11, r8
    1936:	01 c0       	rjmp	.+2      	; 0x193a <vfprintf+0x2d6>
    1938:	b9 2c       	mov	r11, r9
    193a:	a4 fe       	sbrs	r10, 4
    193c:	0f c0       	rjmp	.+30     	; 0x195c <vfprintf+0x2f8>
    193e:	fe 01       	movw	r30, r28
    1940:	e8 0d       	add	r30, r8
    1942:	f1 1d       	adc	r31, r1
    1944:	80 81       	ld	r24, Z
    1946:	80 33       	cpi	r24, 0x30	; 48
    1948:	21 f4       	brne	.+8      	; 0x1952 <vfprintf+0x2ee>
    194a:	9a 2d       	mov	r25, r10
    194c:	99 7e       	andi	r25, 0xE9	; 233
    194e:	a9 2e       	mov	r10, r25
    1950:	09 c0       	rjmp	.+18     	; 0x1964 <vfprintf+0x300>
    1952:	a2 fe       	sbrs	r10, 2
    1954:	06 c0       	rjmp	.+12     	; 0x1962 <vfprintf+0x2fe>
    1956:	b3 94       	inc	r11
    1958:	b3 94       	inc	r11
    195a:	04 c0       	rjmp	.+8      	; 0x1964 <vfprintf+0x300>
    195c:	8a 2d       	mov	r24, r10
    195e:	86 78       	andi	r24, 0x86	; 134
    1960:	09 f0       	breq	.+2      	; 0x1964 <vfprintf+0x300>
    1962:	b3 94       	inc	r11
    1964:	a3 fc       	sbrc	r10, 3
    1966:	11 c0       	rjmp	.+34     	; 0x198a <vfprintf+0x326>
    1968:	a0 fe       	sbrs	r10, 0
    196a:	06 c0       	rjmp	.+12     	; 0x1978 <vfprintf+0x314>
    196c:	b2 14       	cp	r11, r2
    196e:	88 f4       	brcc	.+34     	; 0x1992 <vfprintf+0x32e>
    1970:	28 0c       	add	r2, r8
    1972:	92 2c       	mov	r9, r2
    1974:	9b 18       	sub	r9, r11
    1976:	0e c0       	rjmp	.+28     	; 0x1994 <vfprintf+0x330>
    1978:	b2 14       	cp	r11, r2
    197a:	60 f4       	brcc	.+24     	; 0x1994 <vfprintf+0x330>
    197c:	b6 01       	movw	r22, r12
    197e:	80 e2       	ldi	r24, 0x20	; 32
    1980:	90 e0       	ldi	r25, 0x00	; 0
    1982:	0e 94 29 0d 	call	0x1a52	; 0x1a52 <fputc>
    1986:	b3 94       	inc	r11
    1988:	f7 cf       	rjmp	.-18     	; 0x1978 <vfprintf+0x314>
    198a:	b2 14       	cp	r11, r2
    198c:	18 f4       	brcc	.+6      	; 0x1994 <vfprintf+0x330>
    198e:	2b 18       	sub	r2, r11
    1990:	02 c0       	rjmp	.+4      	; 0x1996 <vfprintf+0x332>
    1992:	98 2c       	mov	r9, r8
    1994:	21 2c       	mov	r2, r1
    1996:	a4 fe       	sbrs	r10, 4
    1998:	10 c0       	rjmp	.+32     	; 0x19ba <vfprintf+0x356>
    199a:	b6 01       	movw	r22, r12
    199c:	80 e3       	ldi	r24, 0x30	; 48
    199e:	90 e0       	ldi	r25, 0x00	; 0
    19a0:	0e 94 29 0d 	call	0x1a52	; 0x1a52 <fputc>
    19a4:	a2 fe       	sbrs	r10, 2
    19a6:	17 c0       	rjmp	.+46     	; 0x19d6 <vfprintf+0x372>
    19a8:	a1 fc       	sbrc	r10, 1
    19aa:	03 c0       	rjmp	.+6      	; 0x19b2 <vfprintf+0x34e>
    19ac:	88 e7       	ldi	r24, 0x78	; 120
    19ae:	90 e0       	ldi	r25, 0x00	; 0
    19b0:	02 c0       	rjmp	.+4      	; 0x19b6 <vfprintf+0x352>
    19b2:	88 e5       	ldi	r24, 0x58	; 88
    19b4:	90 e0       	ldi	r25, 0x00	; 0
    19b6:	b6 01       	movw	r22, r12
    19b8:	0c c0       	rjmp	.+24     	; 0x19d2 <vfprintf+0x36e>
    19ba:	8a 2d       	mov	r24, r10
    19bc:	86 78       	andi	r24, 0x86	; 134
    19be:	59 f0       	breq	.+22     	; 0x19d6 <vfprintf+0x372>
    19c0:	a1 fe       	sbrs	r10, 1
    19c2:	02 c0       	rjmp	.+4      	; 0x19c8 <vfprintf+0x364>
    19c4:	8b e2       	ldi	r24, 0x2B	; 43
    19c6:	01 c0       	rjmp	.+2      	; 0x19ca <vfprintf+0x366>
    19c8:	80 e2       	ldi	r24, 0x20	; 32
    19ca:	a7 fc       	sbrc	r10, 7
    19cc:	8d e2       	ldi	r24, 0x2D	; 45
    19ce:	b6 01       	movw	r22, r12
    19d0:	90 e0       	ldi	r25, 0x00	; 0
    19d2:	0e 94 29 0d 	call	0x1a52	; 0x1a52 <fputc>
    19d6:	89 14       	cp	r8, r9
    19d8:	38 f4       	brcc	.+14     	; 0x19e8 <vfprintf+0x384>
    19da:	b6 01       	movw	r22, r12
    19dc:	80 e3       	ldi	r24, 0x30	; 48
    19de:	90 e0       	ldi	r25, 0x00	; 0
    19e0:	0e 94 29 0d 	call	0x1a52	; 0x1a52 <fputc>
    19e4:	9a 94       	dec	r9
    19e6:	f7 cf       	rjmp	.-18     	; 0x19d6 <vfprintf+0x372>
    19e8:	8a 94       	dec	r8
    19ea:	f3 01       	movw	r30, r6
    19ec:	e8 0d       	add	r30, r8
    19ee:	f1 1d       	adc	r31, r1
    19f0:	80 81       	ld	r24, Z
    19f2:	b6 01       	movw	r22, r12
    19f4:	90 e0       	ldi	r25, 0x00	; 0
    19f6:	0e 94 29 0d 	call	0x1a52	; 0x1a52 <fputc>
    19fa:	81 10       	cpse	r8, r1
    19fc:	f5 cf       	rjmp	.-22     	; 0x19e8 <vfprintf+0x384>
    19fe:	22 20       	and	r2, r2
    1a00:	09 f4       	brne	.+2      	; 0x1a04 <vfprintf+0x3a0>
    1a02:	42 ce       	rjmp	.-892    	; 0x1688 <vfprintf+0x24>
    1a04:	b6 01       	movw	r22, r12
    1a06:	80 e2       	ldi	r24, 0x20	; 32
    1a08:	90 e0       	ldi	r25, 0x00	; 0
    1a0a:	0e 94 29 0d 	call	0x1a52	; 0x1a52 <fputc>
    1a0e:	2a 94       	dec	r2
    1a10:	f6 cf       	rjmp	.-20     	; 0x19fe <vfprintf+0x39a>
    1a12:	f6 01       	movw	r30, r12
    1a14:	86 81       	ldd	r24, Z+6	; 0x06
    1a16:	97 81       	ldd	r25, Z+7	; 0x07
    1a18:	02 c0       	rjmp	.+4      	; 0x1a1e <vfprintf+0x3ba>
    1a1a:	8f ef       	ldi	r24, 0xFF	; 255
    1a1c:	9f ef       	ldi	r25, 0xFF	; 255
    1a1e:	2b 96       	adiw	r28, 0x0b	; 11
    1a20:	e2 e1       	ldi	r30, 0x12	; 18
    1a22:	0c 94 11 0e 	jmp	0x1c22	; 0x1c22 <__epilogue_restores__>

00001a26 <strnlen_P>:
    1a26:	fc 01       	movw	r30, r24
    1a28:	05 90       	lpm	r0, Z+
    1a2a:	61 50       	subi	r22, 0x01	; 1
    1a2c:	70 40       	sbci	r23, 0x00	; 0
    1a2e:	01 10       	cpse	r0, r1
    1a30:	d8 f7       	brcc	.-10     	; 0x1a28 <strnlen_P+0x2>
    1a32:	80 95       	com	r24
    1a34:	90 95       	com	r25
    1a36:	8e 0f       	add	r24, r30
    1a38:	9f 1f       	adc	r25, r31
    1a3a:	08 95       	ret

00001a3c <strnlen>:
    1a3c:	fc 01       	movw	r30, r24
    1a3e:	61 50       	subi	r22, 0x01	; 1
    1a40:	70 40       	sbci	r23, 0x00	; 0
    1a42:	01 90       	ld	r0, Z+
    1a44:	01 10       	cpse	r0, r1
    1a46:	d8 f7       	brcc	.-10     	; 0x1a3e <strnlen+0x2>
    1a48:	80 95       	com	r24
    1a4a:	90 95       	com	r25
    1a4c:	8e 0f       	add	r24, r30
    1a4e:	9f 1f       	adc	r25, r31
    1a50:	08 95       	ret

00001a52 <fputc>:
    1a52:	0f 93       	push	r16
    1a54:	1f 93       	push	r17
    1a56:	cf 93       	push	r28
    1a58:	df 93       	push	r29
    1a5a:	fb 01       	movw	r30, r22
    1a5c:	23 81       	ldd	r18, Z+3	; 0x03
    1a5e:	21 fd       	sbrc	r18, 1
    1a60:	03 c0       	rjmp	.+6      	; 0x1a68 <fputc+0x16>
    1a62:	8f ef       	ldi	r24, 0xFF	; 255
    1a64:	9f ef       	ldi	r25, 0xFF	; 255
    1a66:	2c c0       	rjmp	.+88     	; 0x1ac0 <fputc+0x6e>
    1a68:	22 ff       	sbrs	r18, 2
    1a6a:	16 c0       	rjmp	.+44     	; 0x1a98 <fputc+0x46>
    1a6c:	46 81       	ldd	r20, Z+6	; 0x06
    1a6e:	57 81       	ldd	r21, Z+7	; 0x07
    1a70:	24 81       	ldd	r18, Z+4	; 0x04
    1a72:	35 81       	ldd	r19, Z+5	; 0x05
    1a74:	42 17       	cp	r20, r18
    1a76:	53 07       	cpc	r21, r19
    1a78:	44 f4       	brge	.+16     	; 0x1a8a <fputc+0x38>
    1a7a:	a0 81       	ld	r26, Z
    1a7c:	b1 81       	ldd	r27, Z+1	; 0x01
    1a7e:	9d 01       	movw	r18, r26
    1a80:	2f 5f       	subi	r18, 0xFF	; 255
    1a82:	3f 4f       	sbci	r19, 0xFF	; 255
    1a84:	31 83       	std	Z+1, r19	; 0x01
    1a86:	20 83       	st	Z, r18
    1a88:	8c 93       	st	X, r24
    1a8a:	26 81       	ldd	r18, Z+6	; 0x06
    1a8c:	37 81       	ldd	r19, Z+7	; 0x07
    1a8e:	2f 5f       	subi	r18, 0xFF	; 255
    1a90:	3f 4f       	sbci	r19, 0xFF	; 255
    1a92:	37 83       	std	Z+7, r19	; 0x07
    1a94:	26 83       	std	Z+6, r18	; 0x06
    1a96:	14 c0       	rjmp	.+40     	; 0x1ac0 <fputc+0x6e>
    1a98:	8b 01       	movw	r16, r22
    1a9a:	ec 01       	movw	r28, r24
    1a9c:	fb 01       	movw	r30, r22
    1a9e:	00 84       	ldd	r0, Z+8	; 0x08
    1aa0:	f1 85       	ldd	r31, Z+9	; 0x09
    1aa2:	e0 2d       	mov	r30, r0
    1aa4:	09 95       	icall
    1aa6:	89 2b       	or	r24, r25
    1aa8:	e1 f6       	brne	.-72     	; 0x1a62 <fputc+0x10>
    1aaa:	d8 01       	movw	r26, r16
    1aac:	16 96       	adiw	r26, 0x06	; 6
    1aae:	8d 91       	ld	r24, X+
    1ab0:	9c 91       	ld	r25, X
    1ab2:	17 97       	sbiw	r26, 0x07	; 7
    1ab4:	01 96       	adiw	r24, 0x01	; 1
    1ab6:	17 96       	adiw	r26, 0x07	; 7
    1ab8:	9c 93       	st	X, r25
    1aba:	8e 93       	st	-X, r24
    1abc:	16 97       	sbiw	r26, 0x06	; 6
    1abe:	ce 01       	movw	r24, r28
    1ac0:	df 91       	pop	r29
    1ac2:	cf 91       	pop	r28
    1ac4:	1f 91       	pop	r17
    1ac6:	0f 91       	pop	r16
    1ac8:	08 95       	ret

00001aca <__ultoa_invert>:
    1aca:	fa 01       	movw	r30, r20
    1acc:	aa 27       	eor	r26, r26
    1ace:	28 30       	cpi	r18, 0x08	; 8
    1ad0:	51 f1       	breq	.+84     	; 0x1b26 <__ultoa_invert+0x5c>
    1ad2:	20 31       	cpi	r18, 0x10	; 16
    1ad4:	81 f1       	breq	.+96     	; 0x1b36 <__ultoa_invert+0x6c>
    1ad6:	e8 94       	clt
    1ad8:	6f 93       	push	r22
    1ada:	6e 7f       	andi	r22, 0xFE	; 254
    1adc:	6e 5f       	subi	r22, 0xFE	; 254
    1ade:	7f 4f       	sbci	r23, 0xFF	; 255
    1ae0:	8f 4f       	sbci	r24, 0xFF	; 255
    1ae2:	9f 4f       	sbci	r25, 0xFF	; 255
    1ae4:	af 4f       	sbci	r26, 0xFF	; 255
    1ae6:	b1 e0       	ldi	r27, 0x01	; 1
    1ae8:	3e d0       	rcall	.+124    	; 0x1b66 <__ultoa_invert+0x9c>
    1aea:	b4 e0       	ldi	r27, 0x04	; 4
    1aec:	3c d0       	rcall	.+120    	; 0x1b66 <__ultoa_invert+0x9c>
    1aee:	67 0f       	add	r22, r23
    1af0:	78 1f       	adc	r23, r24
    1af2:	89 1f       	adc	r24, r25
    1af4:	9a 1f       	adc	r25, r26
    1af6:	a1 1d       	adc	r26, r1
    1af8:	68 0f       	add	r22, r24
    1afa:	79 1f       	adc	r23, r25
    1afc:	8a 1f       	adc	r24, r26
    1afe:	91 1d       	adc	r25, r1
    1b00:	a1 1d       	adc	r26, r1
    1b02:	6a 0f       	add	r22, r26
    1b04:	71 1d       	adc	r23, r1
    1b06:	81 1d       	adc	r24, r1
    1b08:	91 1d       	adc	r25, r1
    1b0a:	a1 1d       	adc	r26, r1
    1b0c:	20 d0       	rcall	.+64     	; 0x1b4e <__ultoa_invert+0x84>
    1b0e:	09 f4       	brne	.+2      	; 0x1b12 <__ultoa_invert+0x48>
    1b10:	68 94       	set
    1b12:	3f 91       	pop	r19
    1b14:	2a e0       	ldi	r18, 0x0A	; 10
    1b16:	26 9f       	mul	r18, r22
    1b18:	11 24       	eor	r1, r1
    1b1a:	30 19       	sub	r19, r0
    1b1c:	30 5d       	subi	r19, 0xD0	; 208
    1b1e:	31 93       	st	Z+, r19
    1b20:	de f6       	brtc	.-74     	; 0x1ad8 <__ultoa_invert+0xe>
    1b22:	cf 01       	movw	r24, r30
    1b24:	08 95       	ret
    1b26:	46 2f       	mov	r20, r22
    1b28:	47 70       	andi	r20, 0x07	; 7
    1b2a:	40 5d       	subi	r20, 0xD0	; 208
    1b2c:	41 93       	st	Z+, r20
    1b2e:	b3 e0       	ldi	r27, 0x03	; 3
    1b30:	0f d0       	rcall	.+30     	; 0x1b50 <__ultoa_invert+0x86>
    1b32:	c9 f7       	brne	.-14     	; 0x1b26 <__ultoa_invert+0x5c>
    1b34:	f6 cf       	rjmp	.-20     	; 0x1b22 <__ultoa_invert+0x58>
    1b36:	46 2f       	mov	r20, r22
    1b38:	4f 70       	andi	r20, 0x0F	; 15
    1b3a:	40 5d       	subi	r20, 0xD0	; 208
    1b3c:	4a 33       	cpi	r20, 0x3A	; 58
    1b3e:	18 f0       	brcs	.+6      	; 0x1b46 <__ultoa_invert+0x7c>
    1b40:	49 5d       	subi	r20, 0xD9	; 217
    1b42:	31 fd       	sbrc	r19, 1
    1b44:	40 52       	subi	r20, 0x20	; 32
    1b46:	41 93       	st	Z+, r20
    1b48:	02 d0       	rcall	.+4      	; 0x1b4e <__ultoa_invert+0x84>
    1b4a:	a9 f7       	brne	.-22     	; 0x1b36 <__ultoa_invert+0x6c>
    1b4c:	ea cf       	rjmp	.-44     	; 0x1b22 <__ultoa_invert+0x58>
    1b4e:	b4 e0       	ldi	r27, 0x04	; 4
    1b50:	a6 95       	lsr	r26
    1b52:	97 95       	ror	r25
    1b54:	87 95       	ror	r24
    1b56:	77 95       	ror	r23
    1b58:	67 95       	ror	r22
    1b5a:	ba 95       	dec	r27
    1b5c:	c9 f7       	brne	.-14     	; 0x1b50 <__ultoa_invert+0x86>
    1b5e:	00 97       	sbiw	r24, 0x00	; 0
    1b60:	61 05       	cpc	r22, r1
    1b62:	71 05       	cpc	r23, r1
    1b64:	08 95       	ret
    1b66:	9b 01       	movw	r18, r22
    1b68:	ac 01       	movw	r20, r24
    1b6a:	0a 2e       	mov	r0, r26
    1b6c:	06 94       	lsr	r0
    1b6e:	57 95       	ror	r21
    1b70:	47 95       	ror	r20
    1b72:	37 95       	ror	r19
    1b74:	27 95       	ror	r18
    1b76:	ba 95       	dec	r27
    1b78:	c9 f7       	brne	.-14     	; 0x1b6c <__ultoa_invert+0xa2>
    1b7a:	62 0f       	add	r22, r18
    1b7c:	73 1f       	adc	r23, r19
    1b7e:	84 1f       	adc	r24, r20
    1b80:	95 1f       	adc	r25, r21
    1b82:	a0 1d       	adc	r26, r0
    1b84:	08 95       	ret

00001b86 <__divmodsi4>:
    1b86:	05 2e       	mov	r0, r21
    1b88:	97 fb       	bst	r25, 7
    1b8a:	1e f4       	brtc	.+6      	; 0x1b92 <__divmodsi4+0xc>
    1b8c:	00 94       	com	r0
    1b8e:	0e 94 da 0d 	call	0x1bb4	; 0x1bb4 <__negsi2>
    1b92:	57 fd       	sbrc	r21, 7
    1b94:	07 d0       	rcall	.+14     	; 0x1ba4 <__divmodsi4_neg2>
    1b96:	0e 94 2c 0e 	call	0x1c58	; 0x1c58 <__udivmodsi4>
    1b9a:	07 fc       	sbrc	r0, 7
    1b9c:	03 d0       	rcall	.+6      	; 0x1ba4 <__divmodsi4_neg2>
    1b9e:	4e f4       	brtc	.+18     	; 0x1bb2 <__divmodsi4_exit>
    1ba0:	0c 94 da 0d 	jmp	0x1bb4	; 0x1bb4 <__negsi2>

00001ba4 <__divmodsi4_neg2>:
    1ba4:	50 95       	com	r21
    1ba6:	40 95       	com	r20
    1ba8:	30 95       	com	r19
    1baa:	21 95       	neg	r18
    1bac:	3f 4f       	sbci	r19, 0xFF	; 255
    1bae:	4f 4f       	sbci	r20, 0xFF	; 255
    1bb0:	5f 4f       	sbci	r21, 0xFF	; 255

00001bb2 <__divmodsi4_exit>:
    1bb2:	08 95       	ret

00001bb4 <__negsi2>:
    1bb4:	90 95       	com	r25
    1bb6:	80 95       	com	r24
    1bb8:	70 95       	com	r23
    1bba:	61 95       	neg	r22
    1bbc:	7f 4f       	sbci	r23, 0xFF	; 255
    1bbe:	8f 4f       	sbci	r24, 0xFF	; 255
    1bc0:	9f 4f       	sbci	r25, 0xFF	; 255
    1bc2:	08 95       	ret

00001bc4 <__muluhisi3>:
    1bc4:	0e 94 91 0a 	call	0x1522	; 0x1522 <__umulhisi3>
    1bc8:	a5 9f       	mul	r26, r21
    1bca:	90 0d       	add	r25, r0
    1bcc:	b4 9f       	mul	r27, r20
    1bce:	90 0d       	add	r25, r0
    1bd0:	a4 9f       	mul	r26, r20
    1bd2:	80 0d       	add	r24, r0
    1bd4:	91 1d       	adc	r25, r1
    1bd6:	11 24       	eor	r1, r1
    1bd8:	08 95       	ret

00001bda <__mulshisi3>:
    1bda:	b7 ff       	sbrs	r27, 7
    1bdc:	0c 94 e2 0d 	jmp	0x1bc4	; 0x1bc4 <__muluhisi3>

00001be0 <__mulohisi3>:
    1be0:	0e 94 e2 0d 	call	0x1bc4	; 0x1bc4 <__muluhisi3>
    1be4:	82 1b       	sub	r24, r18
    1be6:	93 0b       	sbc	r25, r19
    1be8:	08 95       	ret

00001bea <__prologue_saves__>:
    1bea:	2f 92       	push	r2
    1bec:	3f 92       	push	r3
    1bee:	4f 92       	push	r4
    1bf0:	5f 92       	push	r5
    1bf2:	6f 92       	push	r6
    1bf4:	7f 92       	push	r7
    1bf6:	8f 92       	push	r8
    1bf8:	9f 92       	push	r9
    1bfa:	af 92       	push	r10
    1bfc:	bf 92       	push	r11
    1bfe:	cf 92       	push	r12
    1c00:	df 92       	push	r13
    1c02:	ef 92       	push	r14
    1c04:	ff 92       	push	r15
    1c06:	0f 93       	push	r16
    1c08:	1f 93       	push	r17
    1c0a:	cf 93       	push	r28
    1c0c:	df 93       	push	r29
    1c0e:	cd b7       	in	r28, 0x3d	; 61
    1c10:	de b7       	in	r29, 0x3e	; 62
    1c12:	ca 1b       	sub	r28, r26
    1c14:	db 0b       	sbc	r29, r27
    1c16:	0f b6       	in	r0, 0x3f	; 63
    1c18:	f8 94       	cli
    1c1a:	de bf       	out	0x3e, r29	; 62
    1c1c:	0f be       	out	0x3f, r0	; 63
    1c1e:	cd bf       	out	0x3d, r28	; 61
    1c20:	09 94       	ijmp

00001c22 <__epilogue_restores__>:
    1c22:	2a 88       	ldd	r2, Y+18	; 0x12
    1c24:	39 88       	ldd	r3, Y+17	; 0x11
    1c26:	48 88       	ldd	r4, Y+16	; 0x10
    1c28:	5f 84       	ldd	r5, Y+15	; 0x0f
    1c2a:	6e 84       	ldd	r6, Y+14	; 0x0e
    1c2c:	7d 84       	ldd	r7, Y+13	; 0x0d
    1c2e:	8c 84       	ldd	r8, Y+12	; 0x0c
    1c30:	9b 84       	ldd	r9, Y+11	; 0x0b
    1c32:	aa 84       	ldd	r10, Y+10	; 0x0a
    1c34:	b9 84       	ldd	r11, Y+9	; 0x09
    1c36:	c8 84       	ldd	r12, Y+8	; 0x08
    1c38:	df 80       	ldd	r13, Y+7	; 0x07
    1c3a:	ee 80       	ldd	r14, Y+6	; 0x06
    1c3c:	fd 80       	ldd	r15, Y+5	; 0x05
    1c3e:	0c 81       	ldd	r16, Y+4	; 0x04
    1c40:	1b 81       	ldd	r17, Y+3	; 0x03
    1c42:	aa 81       	ldd	r26, Y+2	; 0x02
    1c44:	b9 81       	ldd	r27, Y+1	; 0x01
    1c46:	ce 0f       	add	r28, r30
    1c48:	d1 1d       	adc	r29, r1
    1c4a:	0f b6       	in	r0, 0x3f	; 63
    1c4c:	f8 94       	cli
    1c4e:	de bf       	out	0x3e, r29	; 62
    1c50:	0f be       	out	0x3f, r0	; 63
    1c52:	cd bf       	out	0x3d, r28	; 61
    1c54:	ed 01       	movw	r28, r26
    1c56:	08 95       	ret

00001c58 <__udivmodsi4>:
    1c58:	a1 e2       	ldi	r26, 0x21	; 33
    1c5a:	1a 2e       	mov	r1, r26
    1c5c:	aa 1b       	sub	r26, r26
    1c5e:	bb 1b       	sub	r27, r27
    1c60:	fd 01       	movw	r30, r26
    1c62:	0d c0       	rjmp	.+26     	; 0x1c7e <__udivmodsi4_ep>

00001c64 <__udivmodsi4_loop>:
    1c64:	aa 1f       	adc	r26, r26
    1c66:	bb 1f       	adc	r27, r27
    1c68:	ee 1f       	adc	r30, r30
    1c6a:	ff 1f       	adc	r31, r31
    1c6c:	a2 17       	cp	r26, r18
    1c6e:	b3 07       	cpc	r27, r19
    1c70:	e4 07       	cpc	r30, r20
    1c72:	f5 07       	cpc	r31, r21
    1c74:	20 f0       	brcs	.+8      	; 0x1c7e <__udivmodsi4_ep>
    1c76:	a2 1b       	sub	r26, r18
    1c78:	b3 0b       	sbc	r27, r19
    1c7a:	e4 0b       	sbc	r30, r20
    1c7c:	f5 0b       	sbc	r31, r21

00001c7e <__udivmodsi4_ep>:
    1c7e:	66 1f       	adc	r22, r22
    1c80:	77 1f       	adc	r23, r23
    1c82:	88 1f       	adc	r24, r24
    1c84:	99 1f       	adc	r25, r25
    1c86:	1a 94       	dec	r1
    1c88:	69 f7       	brne	.-38     	; 0x1c64 <__udivmodsi4_loop>
    1c8a:	60 95       	com	r22
    1c8c:	70 95       	com	r23
    1c8e:	80 95       	com	r24
    1c90:	90 95       	com	r25
    1c92:	9b 01       	movw	r18, r22
    1c94:	ac 01       	movw	r20, r24
    1c96:	bd 01       	movw	r22, r26
    1c98:	cf 01       	movw	r24, r30
    1c9a:	08 95       	ret

00001c9c <_exit>:
    1c9c:	f8 94       	cli

00001c9e <__stop_program>:
    1c9e:	ff cf       	rjmp	.-2      	; 0x1c9e <__stop_program>
